(lp0
(dp1
S'texte_mode_enh'
p2
S"Texte d'exemple 1"
p3
sS'cpm'
p4
F441.8
sS'aff'
p5
I00
sS'mpm'
p6
F95.6
sS'pseudo'
p7
S'admin'
p8
sS'temps'
p9
I10
sS'score'
p10
I2704
sS'date'
p11
S'2016-08-25'
p12
sS'heure'
p13
S'20:37:04'
p14
sa(dp15
S'texte_mode_enh'
p16
S"Texte d'exemple 1"
p17
sS'cpm'
p18
F405.8
sS'aff'
p19
I00
sS'mpm'
p20
F87.5
sS'pseudo'
p21
S'admin'
p22
sS'temps'
p23
I3
sS'score'
p24
I1587
sS'date'
p25
S'2016-08-25'
p26
sS'heure'
p27
S'20:38:28'
p28
sa(dp29
S'texte_mode_enh'
p30
S"Texte d'exemple 1"
p31
sS'cpm'
p32
F527.1
sS'aff'
p33
I00
sS'mpm'
p34
F122.7
sS'pseudo'
p35
S'admin'
p36
sS'temps'
p37
I3
sS'score'
p38
I2120
sS'date'
p39
S'2016-08-25'
p40
sS'heure'
p41
S'20:40:18'
p42
sa(dp43
S'texte_mode_enh'
p44
S"Texte d'exemple 1"
p45
sS'cpm'
p46
F487.8
sS'aff'
p47
I00
sS'mpm'
p48
F109.7
sS'pseudo'
p49
S'admin'
p50
sS'temps'
p51
I3
sS'score'
p52
I2115
sS'date'
p53
S'2016-08-25'
p54
sS'heure'
p55
S'20:42:13'
p56
sa(dp57
S'texte_mode_enh'
p58
S"Texte d'exemple 1"
p59
sS'cpm'
p60
F381.1
sS'aff'
p61
I00
sS'mpm'
p62
F83.4
sS'pseudo'
p63
S'admin'
p64
sS'temps'
p65
I3
sS'score'
p66
I1711
sS'date'
p67
S'2016-08-25'
p68
sS'heure'
p69
S'20:43:51'
p70
sa(dp71
S'texte_mode_enh'
p72
S"Texte d'exemple 1"
p73
sS'cpm'
p74
F489.0
sS'aff'
p75
I00
sS'mpm'
p76
F108.7
sS'pseudo'
p77
S'admin'
p78
sS'temps'
p79
I3
sS'score'
p80
I1891
sS'date'
p81
S'2016-08-25'
p82
sS'heure'
p83
S'20:45:09'
p84
sa(dp85
S'texte_mode_enh'
p86
S"Texte d'exemple 1"
p87
sS'cpm'
p88
F532.6
sS'aff'
p89
I00
sS'mpm'
p90
F122.9
sS'pseudo'
p91
S'admin'
p92
sS'temps'
p93
I3
sS'score'
p94
I2337
sS'date'
p95
S'2016-08-25'
p96
sS'heure'
p97
S'20:48:31'
p98
sa(dp99
S'texte_mode_enh'
p100
S"Texte d'exemple 1"
p101
sS'cpm'
p102
F576.9
sS'aff'
p103
I00
sS'mpm'
p104
F133.5
sS'pseudo'
p105
S'admin'
p106
sS'temps'
p107
I3
sS'score'
p108
I2615
sS'date'
p109
S'2016-08-25'
p110
sS'heure'
p111
S'20:49:45'
p112
sa(dp113
S'texte_mode_enh'
p114
S"Texte d'exemple 1"
p115
sS'cpm'
p116
F400.2
sS'aff'
p117
I00
sS'mpm'
p118
F85.2
sS'pseudo'
p119
S'Joueur 1'
p120
sS'temps'
p121
I10
sS'score'
p122
I2272
sS'date'
p123
S'2016-08-25'
p124
sS'heure'
p125
S'20:56:22'
p126
sa(dp127
S'texte_mode_enh'
p128
S'Les 100 mots les plus courants'
p129
sS'cpm'
p130
F463.6
sS'aff'
p131
I00
sS'mpm'
p132
F110.7
sS'pseudo'
p133
S'Thomas2'
p134
sS'temps'
p135
I10
sS'score'
p136
I2671
sS'date'
p137
S'2016-08-25'
p138
sS'heure'
p139
S'20:57:29'
p140
sa(dp141
S'texte_mode_enh'
p142
S'Les 100 mots les plus courants'
p143
sS'cpm'
p144
F499.2
sS'aff'
p145
I00
sS'mpm'
p146
F103.5
sS'pseudo'
p147
S'Joueur 1'
p148
sS'temps'
p149
I10
sS'score'
p150
I2894
sS'date'
p151
S'2016-08-25'
p152
sS'heure'
p153
S'20:57:50'
p154
sa(dp155
S'texte_mode_enh'
p156
S'Les 100 mots les plus courants'
p157
sS'cpm'
p158
F517.6
sS'aff'
p159
I00
sS'mpm'
p160
F106.5
sS'pseudo'
p161
S'Joueur 1'
p162
sS'temps'
p163
I10
sS'score'
p164
I3138
sS'date'
p165
S'2016-08-25'
p166
sS'heure'
p167
S'20:58:15'
p168
sa(dp169
S'texte_mode_enh'
p170
S'Les 100 mots les plus courants'
p171
sS'cpm'
p172
F556.2
sS'aff'
p173
I00
sS'mpm'
p174
F133.0
sS'pseudo'
p175
S'Joueur 2'
p176
sS'temps'
p177
I10
sS'score'
p178
I3318
sS'date'
p179
S'2016-08-25'
p180
sS'heure'
p181
S'20:59:41'
p182
sa(dp183
S'texte_mode_enh'
p184
S'Les 100 mots les plus courants'
p185
sS'cpm'
p186
F509.3
sS'aff'
p187
I00
sS'mpm'
p188
F119.4
sS'pseudo'
p189
S'Joueur 1'
p190
sS'temps'
p191
I10
sS'score'
p192
I6825
sS'date'
p193
S'2016-08-25'
p194
sS'heure'
p195
S'20:59:58'
p196
sa(dp197
S'texte_mode_enh'
p198
S'Les 100 mots les plus courants'
p199
sS'cpm'
p200
F556.7
sS'aff'
p201
I00
sS'mpm'
p202
F116.0
sS'pseudo'
p203
S'Joueur 2'
p204
sS'temps'
p205
I10
sS'score'
p206
I3470
sS'date'
p207
S'2016-08-25'
p208
sS'heure'
p209
S'21:01:07'
p210
sa(dp211
S'texte_mode_enh'
p212
S'Les 100 mots les plus courants'
p213
sS'cpm'
p214
F458.5
sS'aff'
p215
I00
sS'mpm'
p216
F98.9
sS'pseudo'
p217
S'Joueur 3'
p218
sS'temps'
p219
I10
sS'score'
p220
I2928
sS'date'
p221
S'2016-08-25'
p222
sS'heure'
p223
S'21:01:23'
p224
sa(dp225
S'texte_mode_enh'
p226
S'Les 100 mots les plus courants'
p227
sS'cpm'
p228
F479.0
sS'aff'
p229
I00
sS'mpm'
p230
F100.9
sS'pseudo'
p231
S'Joueur 4'
p232
sS'temps'
p233
I10
sS'score'
p234
I2578
sS'date'
p235
S'2016-08-25'
p236
sS'heure'
p237
S'21:01:39'
p238
sa(dp239
S'temps'
p240
I2
sS'texte_mode_enh'
p241
S"Texte d'exemple 1"
p242
sS'score'
p243
I2191
sS'cpm'
p244
F561.6
sS'date'
p245
S'2016-08-27'
p246
sS'heure'
p247
S'16:36:23'
p248
sS'aff'
p249
I00
sS'mpm'
p250
F124.8
sS'pseudo'
p251
S'admin'
p252
sa.