(lp0
(dp1
S'temps'
p2
I600
sS'texte_mode_enh'
p3
S"Texte d'exemple 3"
p4
sS'score'
p5
I3471
sS'cpm'
p6
F346.9
sS'date'
p7
S'2016-08-29'
p8
sS'heure'
p9
S'18:45:53'
p10
sS'aff'
p11
I00
sS'mpm'
p12
F66.5
sS'pseudo'
p13
S'Joueur 2'
p14
sa.