(lp0
(dp1
S'texte_mode_enh'
p2
S'Texte personnalis\xc3\xa9 : azertyuiop...'
p3
sS'cpm'
p4
F478.0
sS'aff'
p5
I01
sS'mpm'
p6
F43.5
sS'pseudo'
p7
S'Jro'
p8
sS'temps'
p9
I60
sS'score'
p10
I5364
sS'date'
p11
S'2016-08-26'
p12
sS'heure'
p13
S'08:41:24'
p14
sa(dp15
g2
S'Texte personnalis\xc3\xa9 : azertyuiop...'
p16
sg4
F478.0
sg5
I01
sg6
F43.5
sg7
S'Jro'
p17
sg9
I60
sg10
I5364
sg11
S'2016-08-26'
p18
sg13
S'08:41:24'
p19
sa(dp20
g2
S'Texte personnalis\xc3\xa9 : azertyuiop...'
p21
sg4
F478.0
sg5
I01
sg6
F43.5
sg7
S'Jro'
p22
sg9
I60
sg10
I5364
sg11
S'2016-08-26'
p23
sg13
S'08:41:24'
p24
sa(dp25
g2
S'Texte personnalis\xc3\xa9 : azertyuiop...'
p26
sg4
F478.0
sg5
I01
sg6
F43.5
sg7
S'Jro'
p27
sg9
I60
sg10
I5364
sg11
S'2016-08-26'
p28
sg13
S'08:41:24'
p29
sa(dp30
g2
S'Texte personnalis\xc3\xa9 : azertyuiop...'
p31
sg4
F478.0
sg5
I01
sg6
F43.5
sg7
S'Jro'
p32
sg9
I60
sg10
I5364
sg11
S'2016-08-26'
p33
sg13
S'08:41:24'
p34
sa(dp35
g2
S'Texte personnalis\xc3\xa9 : azertyuiop...'
p36
sg4
F478.0
sg5
I01
sg6
F43.5
sg7
S'Jro'
p37
sg9
I60
sg10
I5364
sg11
S'2016-08-26'
p38
sg13
S'08:41:24'
p39
sa(dp40
g2
S'Texte personnalis\xc3\xa9 : azertyuiop...'
p41
sg4
F478.0
sg5
I01
sg6
F43.5
sg7
S'Jro'
p42
sg9
I60
sg10
I5364
sg11
S'2016-08-26'
p43
sg13
S'08:41:24'
p44
sa(dp45
g2
S'Texte personnalis\xc3\xa9 : azertyuiop...'
p46
sg4
F478.0
sg5
I01
sg6
F43.5
sg7
S'Jro'
p47
sg9
I60
sg10
I5364
sg11
S'2016-08-26'
p48
sg13
S'08:41:24'
p49
sa(dp50
g2
S'Texte personnalis\xc3\xa9 : azertyuiop...'
p51
sg4
F478.0
sg5
I01
sg6
F43.5
sg7
S'Jro'
p52
sg9
I60
sg10
I5364
sg11
S'2016-08-26'
p53
sg13
S'08:41:24'
p54
sa(dp55
g2
S'Texte personnalis\xc3\xa9 : azertyuiop...'
p56
sg4
F478.0
sg5
I01
sg6
F43.5
sg7
S'Jro'
p57
sg9
I60
sg10
I5364
sg11
S'2016-08-26'
p58
sg13
S'08:41:24'
p59
sa(dp60
g2
S'Texte personnalis\xc3\xa9 : azertyuiop...'
p61
sg4
F478.0
sg5
I01
sg6
F43.5
sg7
S'Jro'
p62
sg9
I60
sg10
I5364
sg11
S'2016-08-26'
p63
sg13
S'08:41:24'
p64
sa(dp65
g2
S'Texte personnalis\xc3\xa9 : azertyuiop...'
p66
sg4
F478.0
sg5
I01
sg6
F43.5
sg7
S'Jro'
p67
sg9
I60
sg10
I5364
sg11
S'2016-08-26'
p68
sg13
S'08:41:24'
p69
sa(dp70
g2
S'Texte personnalis\xc3\xa9 : azertyuiop...'
p71
sg4
F478.0
sg5
I01
sg6
F43.5
sg7
S'Jro'
p72
sg9
I60
sg10
I5364
sg11
S'2016-08-26'
p73
sg13
S'08:41:24'
p74
sa(dp75
g2
S'Texte personnalis\xc3\xa9 : azertyuiop...'
p76
sg4
F478.0
sg5
I01
sg6
F43.5
sg7
S'Jro'
p77
sg9
I60
sg10
I5364
sg11
S'2016-08-26'
p78
sg13
S'08:41:24'
p79
sa(dp80
g2
S'Texte personnalis\xc3\xa9 : azertyuiop...'
p81
sg4
F478.0
sg5
I01
sg6
F43.5
sg7
S'Jro'
p82
sg9
I60
sg10
I5364
sg11
S'2016-08-26'
p83
sg13
S'08:41:24'
p84
sa(dp85
g2
S'Texte personnalis\xc3\xa9 : azertyuiop...'
p86
sg4
F478.0
sg5
I01
sg6
F43.5
sg7
S'Jro'
p87
sg9
I60
sg10
I5364
sg11
S'2016-08-26'
p88
sg13
S'08:41:24'
p89
sa(dp90
g2
S'Texte personnalis\xc3\xa9 : azertyuiop...'
p91
sg4
F478.0
sg5
I01
sg6
F43.5
sg7
S'Jro'
p92
sg9
I60
sg10
I5364
sg11
S'2016-08-26'
p93
sg13
S'08:41:24'
p94
sa(dp95
g2
S'Texte personnalis\xc3\xa9 : azertyuiop...'
p96
sg4
F478.0
sg5
I01
sg6
F43.5
sg7
S'Jro'
p97
sg9
I60
sg10
I5364
sg11
S'2016-08-26'
p98
sg13
S'08:41:24'
p99
sa(dp100
g2
S'Texte personnalis\xc3\xa9 : azertyuiop...'
p101
sg4
F478.0
sg5
I01
sg6
F43.5
sg7
S'Jro'
p102
sg9
I60
sg10
I5364
sg11
S'2016-08-26'
p103
sg13
S'08:41:24'
p104
sa(dp105
g2
S'Texte personnalis\xc3\xa9 : azertyuiop...'
p106
sg4
F478.0
sg5
I01
sg6
F43.5
sg7
S'Jro'
p107
sg9
I60
sg10
I5364
sg11
S'2016-08-26'
p108
sg13
S'08:41:24'
p109
sa(dp110
g2
S'Texte personnalis\xc3\xa9 : azertyuiop...'
p111
sg4
F478.0
sg5
I01
sg6
F43.5
sg7
S'Jro'
p112
sg9
I60
sg10
I5364
sg11
S'2016-08-26'
p113
sg13
S'08:41:24'
p114
sa(dp115
g2
S'Texte personnalis\xc3\xa9 : azertyuiop...'
p116
sg4
F478.0
sg5
I01
sg6
F43.5
sg7
S'Jro'
p117
sg9
I60
sg10
I5364
sg11
S'2016-08-26'
p118
sg13
S'08:41:24'
p119
sa(dp120
g2
S'Texte personnalis\xc3\xa9 : azertyuiop...'
p121
sg4
F478.0
sg5
I01
sg6
F43.5
sg7
S'Jro'
p122
sg9
I60
sg10
I5364
sg11
S'2016-08-26'
p123
sg13
S'08:41:24'
p124
sa(dp125
g2
S'Texte personnalis\xc3\xa9 : azertyuiop...'
p126
sg4
F478.0
sg5
I01
sg6
F43.5
sg7
S'Jro'
p127
sg9
I60
sg10
I5364
sg11
S'2016-08-26'
p128
sg13
S'08:41:24'
p129
sa(dp130
g2
S'Texte personnalis\xc3\xa9 : azertyuiop...'
p131
sg4
F478.0
sg5
I01
sg6
F43.5
sg7
S'Jro'
p132
sg9
I60
sg10
I5364
sg11
S'2016-08-26'
p133
sg13
S'08:41:24'
p134
sa(dp135
g2
S'Texte personnalis\xc3\xa9 : azertyuiop...'
p136
sg4
F478.0
sg5
I01
sg6
F43.5
sg7
S'Jro'
p137
sg9
I60
sg10
I5364
sg11
S'2016-08-26'
p138
sg13
S'08:41:24'
p139
sa(dp140
g2
S'Texte personnalis\xc3\xa9 : azertyuiop...'
p141
sg4
F478.0
sg5
I01
sg6
F43.5
sg7
S'Jro'
p142
sg9
I60
sg10
I5364
sg11
S'2016-08-26'
p143
sg13
S'08:41:24'
p144
sa(dp145
g2
S'Texte personnalis\xc3\xa9 : azertyuiop...'
p146
sg4
F478.0
sg5
I01
sg6
F43.5
sg7
S'Jro'
p147
sg9
I60
sg10
I5364
sg11
S'2016-08-26'
p148
sg13
S'08:41:24'
p149
sa(dp150
g2
S'Texte personnalis\xc3\xa9 : azertyuiop...'
p151
sg4
F478.0
sg5
I01
sg6
F43.5
sg7
S'Jro'
p152
sg9
I60
sg10
I5364
sg11
S'2016-08-26'
p153
sg13
S'08:41:24'
p154
sa(dp155
g2
S'Texte personnalis\xc3\xa9 : azertyuiop...'
p156
sg4
F478.0
sg5
I01
sg6
F43.5
sg7
S'Jro'
p157
sg9
I60
sg10
I5364
sg11
S'2016-08-26'
p158
sg13
S'08:41:24'
p159
sa(dp160
g2
S'Texte personnalis\xc3\xa9 : azertyuiop...'
p161
sg4
F478.0
sg5
I01
sg6
F43.5
sg7
S'Jro'
p162
sg9
I60
sg10
I5364
sg11
S'2016-08-26'
p163
sg13
S'08:41:24'
p164
sa(dp165
g2
S'Les 100 mots les plus courants'
p166
sg4
F466.3
sg5
I01
sg6
F101.6
sg7
S'ThomasAZEEAZE'
p167
sg9
I10
sg10
I2866
sg11
S'2016-08-27'
p168
sg13
S'16:33:42'
p169
sa(dp170
g2
S'Les 100 mots les plus courants'
p171
sg4
F479.3
sg5
I01
sg6
F110.8
sg7
S'erer'
p172
sg9
I10
sg10
I2638
sg11
S'2016-08-27'
p173
sg13
S'16:35:28'
p174
sa(dp175
g2
S'Les 100 mots les plus courants'
p176
sg4
F418.6
sg5
I01
sg6
F80.8
sg7
S'ThomasxD'
p177
sg9
I10
sg10
I2366
sg11
S'2016-08-25'
p178
sg13
S'21:26:12'
p179
sa(dp180
g2
S'Les 100 mots les plus courants'
p181
sg4
F410.8
sg5
I01
sg6
F74.3
sg7
S'ThomasMKII'
p182
sg9
I10
sg10
I2347
sg11
S'2016-08-26'
p183
sg13
S'08:32:25'
p184
sa(dp185
g2
S'Les 100 mots les plus courants'
p186
sg4
F410.8
sg5
I01
sg6
F74.3
sg7
S'ThomasMKII'
p187
sg9
I10
sg10
I2347
sg11
S'2016-08-26'
p188
sg13
S'08:32:25'
p189
sa(dp190
g2
S'Les 100 mots les plus courants'
p191
sg4
F410.8
sg5
I01
sg6
F74.3
sg7
S'ThomasMKII'
p192
sg9
I10
sg10
I2347
sg11
S'2016-08-26'
p193
sg13
S'08:32:25'
p194
sa(dp195
g2
S'Les 100 mots les plus courants'
p196
sg4
F410.8
sg5
I01
sg6
F74.3
sg7
S'ThomasMKII'
p197
sg9
I10
sg10
I2347
sg11
S'2016-08-26'
p198
sg13
S'08:32:25'
p199
sa(dp200
g2
S'Les 100 mots les plus courants'
p201
sg4
F402.4
sg5
I01
sg6
F99.0
sg7
S'ThomasTT'
p202
sg9
I10
sg10
I2027
sg11
S'2016-08-25'
p203
sg13
S'21:11:30'
p204
sa(dp205
g2
S'Mots avec la syllabe -ion'
p206
sg4
F400.5
sg5
I01
sg6
F37.1
sg7
S'Thoams'
p207
sg9
I10
sg10
I1932
sg11
S'2016-08-25'
p208
sg13
S'22:25:58'
p209
sa(dp210
g2
S'Les 100 mots les plus courants'
p211
sg4
F248.2
sg5
I01
sg6
F66.6
sg7
S'th'
p212
sg9
I10
sg10
I1095
sg11
S'2016-08-26'
p213
sg13
S'08:55:54'
p214
sa(dp215
g2
S'Les 100 mots les plus courants'
p216
sg4
F295.3
sg5
I01
sg6
F68.1
sg7
S'ThomasxD'
p217
sg9
I10
sg10
I1074
sg11
S'2016-08-25'
p218
sg13
S'21:51:50'
p219
sa(dp220
g2
S"Texte d'exemple 1"
p221
sg4
F215.6
sg5
I01
sg6
F44.3
sg7
S'Jro'
p222
sg9
I60
sg10
I856
sg11
S'2016-08-26'
p223
sg13
S'08:49:25'
p224
sa(dp225
g2
S"Texte d'exemple 1"
p226
sg4
F215.6
sg5
I01
sg6
F44.3
sg7
S'Jro'
p227
sg9
I60
sg10
I856
sg11
S'2016-08-26'
p228
sg13
S'08:49:25'
p229
sa(dp230
g2
S"Texte d'exemple 1"
p231
sg4
F215.6
sg5
I01
sg6
F44.3
sg7
S'Jro'
p232
sg9
I60
sg10
I856
sg11
S'2016-08-26'
p233
sg13
S'08:49:25'
p234
sa(dp235
g2
S"Texte d'exemple 1"
p236
sg4
F215.6
sg5
I01
sg6
F44.3
sg7
S'Jro'
p237
sg9
I60
sg10
I856
sg11
S'2016-08-26'
p238
sg13
S'08:49:25'
p239
sa(dp240
g2
S"Texte d'exemple 1"
p241
sg4
F215.6
sg5
I01
sg6
F44.3
sg7
S'Jro'
p242
sg9
I60
sg10
I856
sg11
S'2016-08-26'
p243
sg13
S'08:49:25'
p244
sa(dp245
g2
S"Texte d'exemple 1"
p246
sg4
F215.6
sg5
I01
sg6
F44.3
sg7
S'Jro'
p247
sg9
I60
sg10
I856
sg11
S'2016-08-26'
p248
sg13
S'08:49:25'
p249
sa(dp250
g2
S"Texte d'exemple 1"
p251
sg4
F215.6
sg5
I01
sg6
F44.3
sg7
S'Jro'
p252
sg9
I60
sg10
I856
sg11
S'2016-08-26'
p253
sg13
S'08:49:25'
p254
sa(dp255
g2
S"Texte d'exemple 1"
p256
sg4
F215.6
sg5
I01
sg6
F44.3
sg7
S'Jro'
p257
sg9
I60
sg10
I856
sg11
S'2016-08-26'
p258
sg13
S'08:49:25'
p259
sa(dp260
g2
S"Texte d'exemple 1"
p261
sg4
F215.6
sg5
I01
sg6
F44.3
sg7
S'Jro'
p262
sg9
I60
sg10
I856
sg11
S'2016-08-26'
p263
sg13
S'08:49:25'
p264
sa(dp265
g2
S"Texte d'exemple 1"
p266
sg4
F215.6
sg5
I01
sg6
F44.3
sg7
S'Jro'
p267
sg9
I60
sg10
I856
sg11
S'2016-08-26'
p268
sg13
S'08:49:25'
p269
sa(dp270
g2
S"Texte d'exemple 1"
p271
sg4
F215.6
sg5
I01
sg6
F44.3
sg7
S'Jro'
p272
sg9
I60
sg10
I856
sg11
S'2016-08-26'
p273
sg13
S'08:49:25'
p274
sa(dp275
g2
S"Texte d'exemple 1"
p276
sg4
F215.6
sg5
I01
sg6
F44.3
sg7
S'Jro'
p277
sg9
I60
sg10
I856
sg11
S'2016-08-26'
p278
sg13
S'08:49:25'
p279
sa(dp280
g2
S"Texte d'exemple 1"
p281
sg4
F215.6
sg5
I01
sg6
F44.3
sg7
S'Jro'
p282
sg9
I60
sg10
I856
sg11
S'2016-08-26'
p283
sg13
S'08:49:25'
p284
sa(dp285
g2
S"Texte d'exemple 1"
p286
sg4
F215.6
sg5
I01
sg6
F44.3
sg7
S'Jro'
p287
sg9
I60
sg10
I856
sg11
S'2016-08-26'
p288
sg13
S'08:49:25'
p289
sa(dp290
g2
S"Texte d'exemple 1"
p291
sg4
F215.6
sg5
I01
sg6
F44.3
sg7
S'Jro'
p292
sg9
I60
sg10
I856
sg11
S'2016-08-26'
p293
sg13
S'08:49:25'
p294
sa(dp295
g2
S"Texte d'exemple 1"
p296
sg4
F215.6
sg5
I01
sg6
F44.3
sg7
S'Jro'
p297
sg9
I60
sg10
I856
sg11
S'2016-08-26'
p298
sg13
S'08:49:25'
p299
sa(dp300
g2
S"Texte d'exemple 1"
p301
sg4
F215.6
sg5
I01
sg6
F44.3
sg7
S'Jro'
p302
sg9
I60
sg10
I856
sg11
S'2016-08-26'
p303
sg13
S'08:49:25'
p304
sa(dp305
g2
S"Texte d'exemple 1"
p306
sg4
F215.6
sg5
I01
sg6
F44.3
sg7
S'Jro'
p307
sg9
I60
sg10
I856
sg11
S'2016-08-26'
p308
sg13
S'08:49:25'
p309
sa(dp310
g2
S"Texte d'exemple 1"
p311
sg4
F215.6
sg5
I01
sg6
F44.3
sg7
S'Jro'
p312
sg9
I60
sg10
I856
sg11
S'2016-08-26'
p313
sg13
S'08:49:25'
p314
sa(dp315
g2
S"Texte d'exemple 1"
p316
sg4
F215.6
sg5
I01
sg6
F44.3
sg7
S'Jro'
p317
sg9
I60
sg10
I856
sg11
S'2016-08-26'
p318
sg13
S'08:49:25'
p319
sa(dp320
g2
S"Texte d'exemple 1"
p321
sg4
F215.6
sg5
I01
sg6
F44.3
sg7
S'Jro'
p322
sg9
I60
sg10
I856
sg11
S'2016-08-26'
p323
sg13
S'08:49:25'
p324
sa(dp325
g2
S"Texte d'exemple 1"
p326
sg4
F215.6
sg5
I01
sg6
F44.3
sg7
S'Jro'
p327
sg9
I60
sg10
I856
sg11
S'2016-08-26'
p328
sg13
S'08:49:25'
p329
sa(dp330
g2
S"Texte d'exemple 1"
p331
sg4
F215.6
sg5
I01
sg6
F44.3
sg7
S'Jro'
p332
sg9
I60
sg10
I856
sg11
S'2016-08-26'
p333
sg13
S'08:49:25'
p334
sa(dp335
g2
S'Texte personnalis\xc3\xa9 : 3a2z1e 3a2...'
p336
sg4
F195.8
sg5
I01
sg6
F28.0
sg7
S'Jro'
p337
sg9
I60
sg10
I761
sg11
S'2016-08-26'
p338
sg13
S'08:46:19'
p339
sa(dp340
g2
S'Texte personnalis\xc3\xa9 : 3a2z1e 3a2...'
p341
sg4
F195.8
sg5
I01
sg6
F28.0
sg7
S'Jro'
p342
sg9
I60
sg10
I761
sg11
S'2016-08-26'
p343
sg13
S'08:46:19'
p344
sa(dp345
g2
S'Texte personnalis\xc3\xa9 : 3a2z1e 3a2...'
p346
sg4
F195.8
sg5
I01
sg6
F28.0
sg7
S'Jro'
p347
sg9
I60
sg10
I761
sg11
S'2016-08-26'
p348
sg13
S'08:46:19'
p349
sa(dp350
g2
S'Texte personnalis\xc3\xa9 : 3a2z1e 3a2...'
p351
sg4
F195.8
sg5
I01
sg6
F28.0
sg7
S'Jro'
p352
sg9
I60
sg10
I761
sg11
S'2016-08-26'
p353
sg13
S'08:46:19'
p354
sa(dp355
g2
S'Texte personnalis\xc3\xa9 : 3a2z1e 3a2...'
p356
sg4
F195.8
sg5
I01
sg6
F28.0
sg7
S'Jro'
p357
sg9
I60
sg10
I761
sg11
S'2016-08-26'
p358
sg13
S'08:46:19'
p359
sa(dp360
g2
S'Texte personnalis\xc3\xa9 : 3a2z1e 3a2...'
p361
sg4
F195.8
sg5
I01
sg6
F28.0
sg7
S'Jro'
p362
sg9
I60
sg10
I761
sg11
S'2016-08-26'
p363
sg13
S'08:46:19'
p364
sa(dp365
g2
S'Texte personnalis\xc3\xa9 : 3a2z1e 3a2...'
p366
sg4
F195.8
sg5
I01
sg6
F28.0
sg7
S'Jro'
p367
sg9
I60
sg10
I761
sg11
S'2016-08-26'
p368
sg13
S'08:46:19'
p369
sa(dp370
g2
S'Texte personnalis\xc3\xa9 : 3a2z1e 3a2...'
p371
sg4
F195.8
sg5
I01
sg6
F28.0
sg7
S'Jro'
p372
sg9
I60
sg10
I761
sg11
S'2016-08-26'
p373
sg13
S'08:46:19'
p374
sa(dp375
g2
S'Texte personnalis\xc3\xa9 : 3a2z1e 3a2...'
p376
sg4
F195.8
sg5
I01
sg6
F28.0
sg7
S'Jro'
p377
sg9
I60
sg10
I761
sg11
S'2016-08-26'
p378
sg13
S'08:46:19'
p379
sa(dp380
g2
S'Texte personnalis\xc3\xa9 : 3a2z1e 3a2...'
p381
sg4
F195.8
sg5
I01
sg6
F28.0
sg7
S'Jro'
p382
sg9
I60
sg10
I761
sg11
S'2016-08-26'
p383
sg13
S'08:46:19'
p384
sa(dp385
g2
S'Texte personnalis\xc3\xa9 : 3a2z1e 3a2...'
p386
sg4
F195.8
sg5
I01
sg6
F28.0
sg7
S'Jro'
p387
sg9
I60
sg10
I761
sg11
S'2016-08-26'
p388
sg13
S'08:46:19'
p389
sa(dp390
g2
S'Texte personnalis\xc3\xa9 : 3a2z1e 3a2...'
p391
sg4
F195.8
sg5
I01
sg6
F28.0
sg7
S'Jro'
p392
sg9
I60
sg10
I761
sg11
S'2016-08-26'
p393
sg13
S'08:46:19'
p394
sa(dp395
g2
S'Texte personnalis\xc3\xa9 : 3a2z1e 3a2...'
p396
sg4
F195.8
sg5
I01
sg6
F28.0
sg7
S'Jro'
p397
sg9
I60
sg10
I761
sg11
S'2016-08-26'
p398
sg13
S'08:46:19'
p399
sa(dp400
g2
S'Texte personnalis\xc3\xa9 : 3a2z1e 3a2...'
p401
sg4
F195.8
sg5
I01
sg6
F28.0
sg7
S'Jro'
p402
sg9
I60
sg10
I761
sg11
S'2016-08-26'
p403
sg13
S'08:46:19'
p404
sa(dp405
g2
S'Texte personnalis\xc3\xa9 : 3a2z1e 3a2...'
p406
sg4
F195.8
sg5
I01
sg6
F28.0
sg7
S'Jro'
p407
sg9
I60
sg10
I761
sg11
S'2016-08-26'
p408
sg13
S'08:46:19'
p409
sa(dp410
g2
S'Texte personnalis\xc3\xa9 : 3a2z1e 3a2...'
p411
sg4
F195.8
sg5
I01
sg6
F28.0
sg7
S'Jro'
p412
sg9
I60
sg10
I761
sg11
S'2016-08-26'
p413
sg13
S'08:46:19'
p414
sa(dp415
g2
S'Texte personnalis\xc3\xa9 : 3a2z1e 3a2...'
p416
sg4
F195.8
sg5
I01
sg6
F28.0
sg7
S'Jro'
p417
sg9
I60
sg10
I761
sg11
S'2016-08-26'
p418
sg13
S'08:46:19'
p419
sa(dp420
g2
S'Texte personnalis\xc3\xa9 : 3a2z1e 3a2...'
p421
sg4
F195.8
sg5
I01
sg6
F28.0
sg7
S'Jro'
p422
sg9
I60
sg10
I761
sg11
S'2016-08-26'
p423
sg13
S'08:46:19'
p424
sa(dp425
g2
S'Texte personnalis\xc3\xa9 : 3a2z1e 3a2...'
p426
sg4
F195.8
sg5
I01
sg6
F28.0
sg7
S'Jro'
p427
sg9
I60
sg10
I761
sg11
S'2016-08-26'
p428
sg13
S'08:46:19'
p429
sa(dp430
g2
S'Texte personnalis\xc3\xa9 : 3a2z1e 3a2...'
p431
sg4
F195.8
sg5
I01
sg6
F28.0
sg7
S'Jro'
p432
sg9
I60
sg10
I761
sg11
S'2016-08-26'
p433
sg13
S'08:46:19'
p434
sa(dp435
g2
S'Texte personnalis\xc3\xa9 : 3a2z1e 3a2...'
p436
sg4
F195.8
sg5
I01
sg6
F28.0
sg7
S'Jro'
p437
sg9
I60
sg10
I761
sg11
S'2016-08-26'
p438
sg13
S'08:46:19'
p439
sa(dp440
g2
S'Texte personnalis\xc3\xa9 : 3a2z1e 3a2...'
p441
sg4
F195.8
sg5
I01
sg6
F28.0
sg7
S'Jro'
p442
sg9
I60
sg10
I761
sg11
S'2016-08-26'
p443
sg13
S'08:46:19'
p444
sa(dp445
g2
S'Texte personnalis\xc3\xa9 : 3a2z1e 3a2...'
p446
sg4
F195.8
sg5
I01
sg6
F28.0
sg7
S'Jro'
p447
sg9
I60
sg10
I761
sg11
S'2016-08-26'
p448
sg13
S'08:46:19'
p449
sa(dp450
g2
S'Texte personnalis\xc3\xa9 : 3a2z1e 3a2...'
p451
sg4
F195.8
sg5
I01
sg6
F28.0
sg7
S'Jro'
p452
sg9
I60
sg10
I761
sg11
S'2016-08-26'
p453
sg13
S'08:46:19'
p454
sa(dp455
g2
S'Texte personnalis\xc3\xa9 : 3a2z1e 3a2...'
p456
sg4
F195.8
sg5
I01
sg6
F28.0
sg7
S'Jro'
p457
sg9
I60
sg10
I761
sg11
S'2016-08-26'
p458
sg13
S'08:46:19'
p459
sa(dp460
g2
S'Texte personnalis\xc3\xa9 : 3a2z1e 3a2...'
p461
sg4
F195.8
sg5
I01
sg6
F28.0
sg7
S'Jro'
p462
sg9
I60
sg10
I761
sg11
S'2016-08-26'
p463
sg13
S'08:46:19'
p464
sa(dp465
g2
S"Texte d'exemple 1"
p466
sg4
F156.5
sg5
I01
sg6
F30.3
sg7
S'hey !'
p467
sg9
I60
sg10
I440
sg11
S'2016-08-26'
p468
sg13
S'08:59:09'
p469
sa(dp470
g2
S"Texte d'exemple 1"
p471
sg4
F156.5
sg5
I01
sg6
F30.3
sg7
S'hey !'
p472
sg9
I60
sg10
I440
sg11
S'2016-08-26'
p473
sg13
S'08:59:09'
p474
sa(dp475
g2
S"Texte d'exemple 1"
p476
sg4
F156.5
sg5
I01
sg6
F30.3
sg7
S'hey !'
p477
sg9
I60
sg10
I440
sg11
S'2016-08-26'
p478
sg13
S'08:59:09'
p479
sa(dp480
g2
S"Texte d'exemple 1"
p481
sg4
F156.5
sg5
I01
sg6
F30.3
sg7
S'hey !'
p482
sg9
I60
sg10
I440
sg11
S'2016-08-26'
p483
sg13
S'08:59:09'
p484
sa(dp485
g2
S"Texte d'exemple 1"
p486
sg4
F156.5
sg5
I01
sg6
F30.3
sg7
S'hey !'
p487
sg9
I60
sg10
I440
sg11
S'2016-08-26'
p488
sg13
S'08:59:09'
p489
sa(dp490
g2
S"Texte d'exemple 1"
p491
sg4
F156.5
sg5
I01
sg6
F30.3
sg7
S'hey !'
p492
sg9
I60
sg10
I440
sg11
S'2016-08-26'
p493
sg13
S'08:59:09'
p494
sa(dp495
g2
S"Texte d'exemple 1"
p496
sg4
F156.5
sg5
I01
sg6
F30.3
sg7
S'hey !'
p497
sg9
I60
sg10
I440
sg11
S'2016-08-26'
p498
sg13
S'08:59:09'
p499
sa(dp500
g2
S"Texte d'exemple 1"
p501
sg4
F156.5
sg5
I01
sg6
F30.3
sg7
S'hey !'
p502
sg9
I60
sg10
I440
sg11
S'2016-08-26'
p503
sg13
S'08:59:09'
p504
sa(dp505
g2
S"Texte d'exemple 1"
p506
sg4
F156.5
sg5
I01
sg6
F30.3
sg7
S'hey !'
p507
sg9
I60
sg10
I440
sg11
S'2016-08-26'
p508
sg13
S'08:59:09'
p509
sa(dp510
g2
S"Texte d'exemple 1"
p511
sg4
F156.5
sg5
I01
sg6
F30.3
sg7
S'hey !'
p512
sg9
I60
sg10
I440
sg11
S'2016-08-26'
p513
sg13
S'08:59:09'
p514
sa(dp515
g2
S"Texte d'exemple 1"
p516
sg4
F1405.7
sg5
I01
sg6
F282.3
sg7
S'kikoi'
p517
sg9
I10
sg10
I0
sg11
S'2016-08-26'
p518
sg13
S'09:01:57'
p519
sa(dp520
g2
S"Texte d'exemple 1"
p521
sg4
F6.0
sg5
I01
sg6
F0.0
sg7
S'kikoi'
p522
sg9
I10
sg10
I0
sg11
S'2016-08-26'
p523
sg13
S'09:02:36'
p524
sa(dp525
g2
S"Texte d'exemple 1"
p526
sg4
F12.3
sg5
I01
sg6
F0.0
sg7
S'kikoi'
p527
sg9
I10
sg10
I0
sg11
S'2016-08-26'
p528
sg13
S'09:02:58'
p529
sa.