(lp0
(dp1
S'texte_mode_enh'
p2
S'Les 100 mots les plus courants'
p3
sS'cpm'
p4
F443.8
sS'aff'
p5
I01
sS'mpm'
p6
F102.4
sS'pseudo'
p7
S'Thomas'
p8
sS'temps'
p9
I30
sS'score'
p10
I2897
sS'date'
p11
S'2016-08-27'
p12
sS'heure'
p13
S'16:53:27'
p14
sa(dp15
g2
S'Les 100 mots les plus courants'
p16
sg4
F452.0
sg5
I01
sg6
F108.2
sg7
S'Thomas'
p17
sg9
I30
sg10
I2862
sg11
S'2016-08-27'
p18
sg13
S'16:59:31'
p19
sa(dp20
g2
S'Mots avec la syllabe -ion'
p21
sg4
F332.0
sg5
I01
sg6
F30.9
sg7
S'Thomas'
p22
sg9
I30
sg10
I1842
sg11
S'2016-08-27'
p23
sg13
S'16:57:24'
p24
sa.