(lp0
(dp1
S'texte_mode_enh'
p2
S'Inconnu'
p3
sS'cpm'
p4
cdecimal
Decimal
p5
(S'9999.9'
p6
tp7
Rp8
sS'mpm'
p9
g5
(S'999.9'
p10
tp11
Rp12
sS'pseudo'
p13
S'#Big-Bang'
p14
sS'temps'
p15
L60L
sS'd_h'
p16
cdatetime
datetime
p17
(S'\x07\xd1\x01\x01\x00\x00\x00\x00\x00\x00'
p18
tp19
Rp20
sS'score'
p21
L1000000000L
sa(dp22
g2
S'Inconnu'
p23
sg4
g5
(S'1000.0'
p24
tp25
Rp26
sg9
g5
(S'200.0'
p27
tp28
Rp29
sg13
S'#Trou-Noir'
p30
sg15
L60L
sg16
g17
(S'\x07\xd1\x01\x01\x00\x00\x00\x00\x00\x00'
p31
tp32
Rp33
sg21
L5000L
sa(dp34
g2
S"Texte d'exemple 1"
p35
sg4
g5
(S'486.8'
p36
tp37
Rp38
sg9
g5
(S'102.2'
p39
tp40
Rp41
sg13
S'Thomas'
p42
sg15
L10L
sg16
g17
(S'\x07\xe0\x05\x0c\x0c6\x10\x00\x00\x00'
p43
tp44
Rp45
sg21
L3187L
sa(dp46
g2
S'Inconnu'
p47
sg4
g5
(S'500.0'
p48
tp49
Rp50
sg9
g5
(S'100.0'
p51
tp52
Rp53
sg13
S'#SuperNova'
p54
sg15
L60L
sg16
g17
(S'\x07\xd1\x01\x01\x00\x00\x00\x00\x00\x00'
p55
tp56
Rp57
sg21
L3000L
sa(dp58
g2
S'Les 100 mots les plus courants'
p59
sg4
g5
(S'451.5'
p60
tp61
Rp62
sg9
g5
(S'102.3'
p63
tp64
Rp65
sg13
S'ThomasMKII'
p66
sg15
L10L
sg16
g17
(S'\x07\xe0\x05\x0c\x0f\x181\x00\x00\x00'
p67
tp68
Rp69
sg21
L2822L
sa(dp70
g2
S'Les 100 mots les plus courants'
p71
sg4
g5
(S'472.8'
p72
tp73
Rp74
sg9
g5
(S'106.9'
p75
tp76
Rp77
sg13
S'Thomas'
p78
sg15
L15L
sg16
g17
(S'\x07\xe0\x05\x0c\x0c.\x0f\x00\x00\x00'
p79
tp80
Rp81
sg21
L2798L
sa(dp82
g2
S"Texte d'exemple 1"
p83
sg4
g5
(S'564.4'
p84
tp85
Rp86
sg9
g5
(S'128.9'
p87
tp88
Rp89
sg13
S'Admin'
p90
sg15
L3L
sg16
g17
(S'\x07\xe0\x05\x0c\x162\x17\x00\x00\x00'
p91
tp92
Rp93
sg21
L2685L
sa(dp94
g2
S"Texte d'exemple 1"
p95
sg4
g5
(S'444.9'
p96
tp97
Rp98
sg9
g5
(S'97.8'
p99
tp100
Rp101
sg13
S'Tigrou'
p102
sg15
L10L
sg16
g17
(S'\x07\xe0\x05\r\x0c1\x1e\x00\x00\x00'
p103
tp104
Rp105
sg21
L2620L
sa(dp106
g2
S"Texte d'exemple 1"
p107
sg4
g5
(S'587.0'
p108
tp109
Rp110
sg9
g5
(S'131.9'
p111
tp112
Rp113
sg13
S'admin'
p114
sg15
L2L
sg16
g17
(S'\x07\xe0\x05\r\t *\x00\x00\x00'
p115
tp116
Rp117
sg21
L2515L
sa(dp118
g2
S"Texte d'exemple 1"
p119
sg4
g5
(S'481.2'
p120
tp121
Rp122
sg9
g5
(S'104.6'
p123
tp124
Rp125
sg13
S'Admin'
p126
sg15
L3L
sg16
g17
(S'\x07\xe0\x05\x0c\x1062\x00\x00\x00'
p127
tp128
Rp129
sg21
L2352L
sa(dp130
g2
S'Mots avec la syllabe -sser'
p131
sg4
g5
(S'416.0'
p132
tp133
Rp134
sg9
g5
(S'52.4'
p135
tp136
Rp137
sg13
S'ThomasMKII'
p138
sg15
L10L
sg16
g17
(S'\x07\xe0\x05\x0c\x0f\x073\x00\x00\x00'
p139
tp140
Rp141
sg21
L2338L
sa(dp142
g2
S'Mots avec la syllabe -ion'
p143
sg4
g5
(S'406.1'
p144
tp145
Rp146
sg9
g5
(S'43.5'
p147
tp148
Rp149
sg13
S'Thomas'
p150
sg15
L10L
sg16
g17
(S'\x07\xe0\x05\x0c\x0c8\x14\x00\x00\x00'
p151
tp152
Rp153
sg21
L2284L
sa(dp154
g2
S"Texte d'exemple 1"
p155
sg4
g5
(S'428.8'
p156
tp157
Rp158
sg9
g5
(S'97.5'
p159
tp160
Rp161
sg13
S'Admin'
p162
sg15
L10L
sg16
g17
(S'\x07\xe0\x05\x0c\x17\n\x10\x00\x00\x00'
p163
tp164
Rp165
sg21
L2235L
sa(dp166
g2
S"Texte d'exemple 1"
p167
sg4
g5
(S'428.8'
p168
tp169
Rp170
sg9
g5
(S'97.5'
p171
tp172
Rp173
sg13
S'Admin'
p174
sg15
L10L
sg16
g17
(S'\x07\xe0\x05\x0c\x17\n\x10\x00\x00\x00'
p175
tp176
Rp177
sg21
L2235L
sa(dp178
g2
S"Texte d'exemple 1"
p179
sg4
g5
(S'428.8'
p180
tp181
Rp182
sg9
g5
(S'97.5'
p183
tp184
Rp185
sg13
S'Admin'
p186
sg15
L10L
sg16
g17
(S'\x07\xe0\x05\x0c\x17\n\x10\x00\x00\x00'
p187
tp188
Rp189
sg21
L2235L
sa(dp190
g2
S'Mots avec la syllabe -sser'
p191
sg4
g5
(S'406.4'
p192
tp193
Rp194
sg9
g5
(S'40.1'
p195
tp196
Rp197
sg13
S'ThomasMKII'
p198
sg15
L10L
sg16
g17
(S'\x07\xe0\x05\x0c\x0f\x162\x00\x00\x00'
p199
tp200
Rp201
sg21
L2156L
sa(dp202
g2
S'Les 1000 mots les plus courants'
p203
sg4
g5
(S'292.2'
p204
tp205
Rp206
sg9
g5
(S'41.6'
p207
tp208
Rp209
sg13
S'Donuts'
p210
sg15
L60L
sg16
g17
(S'\x07\xe0\x05\x0c\x0f"\'\x00\x00\x00'
p211
tp212
Rp213
sg21
L2004L
sa(dp214
g2
S'Inconnu'
p215
sg4
g5
(S'400.0'
p216
tp217
Rp218
sg9
g5
(S'80.0'
p219
tp220
Rp221
sg13
S'#Dieu'
p222
sg15
L60L
sg16
g17
(S'\x07\xd1\x01\x01\x00\x00\x00\x00\x00\x00'
p223
tp224
Rp225
sg21
L2000L
sa(dp226
g2
S"Texte d'exemple 2"
p227
sg4
g5
(S'403.3'
p228
tp229
Rp230
sg9
g5
(S'85.3'
p231
tp232
Rp233
sg13
S'Thomas'
p234
sg15
L10L
sg16
g17
(S'\x07\xe0\x05\r\x089\x12\x00\x00\x00'
p235
tp236
Rp237
sg21
L1920L
sa(dp238
g2
S"Texte d'exemple 2"
p239
sg4
g5
(S'394.9'
p240
tp241
Rp242
sg9
g5
(S'82.4'
p243
tp244
Rp245
sg13
S'admin'
p246
sg15
L10L
sg16
g17
(S'\x07\xe0\x05\r\x08:\x1b\x00\x00\x00'
p247
tp248
Rp249
sg21
L1914L
sa(dp250
g2
S'Mots avec la syllabe -cher'
p251
sg4
g5
(S'286.2'
p252
tp253
Rp254
sg9
g5
(S'34.8'
p255
tp256
Rp257
sg13
S'max la menace'
p258
sg15
L60L
sg16
g17
(S'\x07\xe0\x05\r\t+\x12\x00\x00\x00'
p259
tp260
Rp261
sg21
L1714L
sa(dp262
g2
S'Les 100 mots les plus courants'
p263
sg4
g5
(S'321.5'
p264
tp265
Rp266
sg9
g5
(S'62.7'
p267
tp268
Rp269
sg13
S'Thommy'
p270
sg15
L10L
sg16
g17
(S'\x07\xe0\x05\x0c\x0f\x1b,\x00\x00\x00'
p271
tp272
Rp273
sg21
L1686L
sa(dp274
g2
S"Texte d'exemple 1"
p275
sg4
g5
(S'222.7'
p276
tp277
Rp278
sg9
g5
(S'48.5'
p279
tp280
Rp281
sg13
S'max la menace'
p282
sg15
L60L
sg16
g17
(S'\x07\xe0\x05\x0c\x0f(\x13\x00\x00\x00'
p283
tp284
Rp285
sg21
L1621L
sa(dp286
g2
S'Inconnu'
p287
sg4
g5
(S'300.0'
p288
tp289
Rp290
sg9
g5
(S'60.0'
p291
tp292
Rp293
sg13
S'#Demi-Dieu'
p294
sg15
L60L
sg16
g17
(S'\x07\xd1\x01\x01\x00\x00\x00\x00\x00\x00'
p295
tp296
Rp297
sg21
L1500L
sa(dp298
g2
S'Texte personnalis\xc3\xa9 : ID\tPseudo\t...'
p299
sg4
g5
(S'288.1'
p300
tp301
Rp302
sg9
g5
(S'52.2'
p303
tp304
Rp305
sg13
S'Thommy'
p306
sg15
L10L
sg16
g17
(S'\x07\xe0\x05\x0c\x0f\x1d\t\x00\x00\x00'
p307
tp308
Rp309
sg21
L1410L
sa(dp310
g2
S'Mots avec la syllabe -cher'
p311
sg4
g5
(S'279.2'
p312
tp313
Rp314
sg9
g5
(S'34.3'
p315
tp316
Rp317
sg13
S'Adrien'
p318
sg15
L60L
sg16
g17
(S'\x07\xe0\x05\r\t)"\x00\x00\x00'
p319
tp320
Rp321
sg21
L1220L
sa(dp322
g2
S'Mots avec la syllabe -tion'
p323
sg4
g5
(S'266.6'
p324
tp325
Rp326
sg9
g5
(S'23.8'
p327
tp328
Rp329
sg13
S'Zoive'
p330
sg15
L35L
sg16
g17
(S'\x07\xe0\x05\r\t%\x13\x00\x00\x00'
p331
tp332
Rp333
sg21
L1019L
sa(dp334
g2
S'Inconnu'
p335
sg4
g5
(S'200.0'
p336
tp337
Rp338
sg9
g5
(S'40.0'
p339
tp340
Rp341
sg13
S'#Champion'
p342
sg15
L60L
sg16
g17
(S'\x07\xd1\x01\x01\x00\x00\x00\x00\x00\x00'
p343
tp344
Rp345
sg21
L1000L
sa(dp346
g2
S'Les 1000 mots les plus courants'
p347
sg4
g5
(S'203.2'
p348
tp349
Rp350
sg9
g5
(S'33.6'
p351
tp352
Rp353
sg13
S'adri'
p354
sg15
L60L
sg16
g17
(S'\x07\xe0\x05\x0c\x0f\x1f$\x00\x00\x00'
p355
tp356
Rp357
sg21
L873L
sa(dp358
g2
S"Texte d'exemple 1"
p359
sg4
g5
(S'210.7'
p360
tp361
Rp362
sg9
g5
(S'44.8'
p363
tp364
Rp365
sg13
S'remidepain'
p366
sg15
L60L
sg16
g17
(S'\x07\xe0\x05\r\t8\x11\x00\x00\x00'
p367
tp368
Rp369
sg21
L834L
sa(dp370
g2
S"Texte d'exemple 1"
p371
sg4
g5
(S'177.6'
p372
tp373
Rp374
sg9
g5
(S'35.9'
p375
tp376
Rp377
sg13
S'bart le conqu\xc3\xa9rant'
p378
sg15
L60L
sg16
g17
(S'\x07\xe0\x05\r\t6\x1e\x00\x00\x00'
p379
tp380
Rp381
sg21
L754L
sa(dp382
g2
S'Inconnu'
p383
sg4
g5
(S'150.0'
p384
tp385
Rp386
sg9
g5
(S'30.0'
p387
tp388
Rp389
sg13
S'#Archer'
p390
sg15
L60L
sg16
g17
(S'\x07\xd1\x01\x01\x00\x00\x00\x00\x00\x00'
p391
tp392
Rp393
sg21
L750L
sa(dp394
g2
S'Les 100 mots les plus courants'
p395
sg4
g5
(S'206.3'
p396
tp397
Rp398
sg9
g5
(S'43.6'
p399
tp400
Rp401
sg13
S'bart le conqu\xc3\xa9rant'
p402
sg15
L30L
sg16
g17
(S'\x07\xe0\x05\r\t3/\x00\x00\x00'
p403
tp404
Rp405
sg21
L671L
sa(dp406
g2
S"Texte d'exemple 1"
p407
sg4
g5
(S'182.3'
p408
tp409
Rp410
sg9
g5
(S'36.6'
p411
tp412
Rp413
sg13
S'Victorkikoo54'
p414
sg15
L60L
sg16
g17
(S'\x07\xe0\x05\r\t:\x1d\x00\x00\x00'
p415
tp416
Rp417
sg21
L657L
sa(dp418
g2
S'Mots avec la syllabe -tion'
p419
sg4
g5
(S'179.1'
p420
tp421
Rp422
sg9
g5
(S'17.2'
p423
tp424
Rp425
sg13
S'Zoive'
p426
sg15
L35L
sg16
g17
(S'\x07\xe0\x05\r\t#;\x00\x00\x00'
p427
tp428
Rp429
sg21
L627L
sa(dp430
g2
S'Mots avec la syllabe -cher'
p431
sg4
g5
(S'176.0'
p432
tp433
Rp434
sg9
g5
(S'21.7'
p435
tp436
Rp437
sg13
S'bart le conqu\xc3\xa9rant'
p438
sg15
L120L
sg16
g17
(S'\x07\xe0\x05\r\t0\x1f\x00\x00\x00'
p439
tp440
Rp441
sg21
L611L
sa(dp442
g2
S'Inconnu'
p443
sg4
g5
(S'100.0'
p444
tp445
Rp446
sg9
g5
(S'20.0'
p447
tp448
Rp449
sg13
S'#Guerrier'
p450
sg15
L60L
sg16
g17
(S'\x07\xd1\x01\x01\x00\x00\x00\x00\x00\x00'
p451
tp452
Rp453
sg21
L500L
sa(dp454
g2
S"Texte d'exemple 1"
p455
sg4
g5
(S'125.1'
p456
tp457
Rp458
sg9
g5
(S'25.0'
p459
tp460
Rp461
sg13
S'zaza come back'
p462
sg15
L60L
sg16
g17
(S'\x07\xe0\x05\r\n\x01\x15\x00\x00\x00'
p463
tp464
Rp465
sg21
L414L
sa(dp466
g2
S"Texte d'exemple 1"
p467
sg4
g5
(S'133.1'
p468
tp469
Rp470
sg9
g5
(S'26.5'
p471
tp472
Rp473
sg13
S'milou'
p474
sg15
L60L
sg16
g17
(S'\x07\xe0\x05\x0c\x0f$"\x00\x00\x00'
p475
tp476
Rp477
sg21
L379L
sa(dp478
g2
S"Texte d'exemple 1"
p479
sg4
g5
(S'112.4'
p480
tp481
Rp482
sg9
g5
(S'25.4'
p483
tp484
Rp485
sg13
S'zaza'
p486
sg15
L60L
sg16
g17
(S'\x07\xe0\x05\x0c\x0f&\x15\x00\x00\x00'
p487
tp488
Rp489
sg21
L356L
sa(dp490
g2
S'Inconnu'
p491
sg4
g5
(S'50.0'
p492
tp493
Rp494
sg9
g5
(S'10.0'
p495
tp496
Rp497
sg13
S'#Novice'
p498
sg15
L60L
sg16
g17
(S'\x07\xd1\x01\x01\x00\x00\x00\x00\x00\x00'
p499
tp500
Rp501
sg21
L250L
sa(dp502
g2
S'Inconnu'
p503
sg4
g5
(S'15.0'
p504
tp505
Rp506
sg9
g5
(S'3.0'
p507
tp508
Rp509
sg13
S'#Newbie'
p510
sg15
L60L
sg16
g17
(S'\x07\xd1\x01\x01\x00\x00\x00\x00\x00\x00'
p511
tp512
Rp513
sg21
L100L
sa.