(lp0
(dp1
S'texte_mode_enh'
p2
S'Inconnu'
p3
sS'cpm'
p4
cdecimal
Decimal
p5
(S'500.0'
p6
tp7
Rp8
sS'mpm'
p9
g5
(S'125.0'
p10
tp11
Rp12
sS'pseudo'
p13
S'GodLike'
p14
sS'temps'
p15
L60L
sS'd_h'
p16
cdatetime
datetime
p17
(S'\x07\xe0\x05\x04\x142\x1f\x00\x00\x00'
p18
tp19
Rp20
sS'score'
p21
L5000L
sa(dp22
g2
S"Texte d'exemple 1"
p23
sg4
g5
(S'400.0'
p24
tp25
Rp26
sg9
g5
(S'80.0'
p27
tp28
Rp29
sg13
S'Thomas'
p30
sg15
L60L
sg16
g17
(S'\x07\xe0\x05\x04\x0c\x17"\x00\x00\x00'
p31
tp32
Rp33
sg21
L3000L
sa(dp34
g2
S'Les 100 mots les plus courants'
p35
sg4
g5
(S'468.3'
p36
tp37
Rp38
sg9
g5
(S'98.6'
p39
tp40
Rp41
sg13
S'ThomThom'
p42
sg15
L10L
sg16
g17
(S'\x07\xe0\x05\x0c\n!\x15\x00\x00\x00'
p43
tp44
Rp45
sg21
L2678L
sa(dp46
g2
S"Texte d'exemple 1"
p47
sg4
g5
(S'379.2'
p48
tp49
Rp50
sg9
g5
(S'78.2'
p51
tp52
Rp53
sg13
S'ThomasMKII'
p54
sg15
L10L
sg16
g17
(S'\x07\xe0\x05\x0c\x0c\x14+\x00\x00\x00'
p55
tp56
Rp57
sg21
L2615L
sa(dp58
g2
S"Texte d'exemple 1"
p59
sg4
g5
(S'402.7'
p60
tp61
Rp62
sg9
g5
(S'86.0'
p63
tp64
Rp65
sg13
S'Anonyme'
p66
sg15
L10L
sg16
g17
(S'\x07\xe0\x05\x0c\n\x14\x1b\x00\x00\x00'
p67
tp68
Rp69
sg21
L2275L
sa(dp70
g2
S"Texte d'exemple 1"
p71
sg4
g5
(S'332.0'
p72
tp73
Rp74
sg9
g5
(S'53.0'
p75
tp76
Rp77
sg13
S'Adrien'
p78
sg15
L60L
sg16
g17
(S'\x07\xe0\x05\n\x10\x02"\x00\x00\x00'
p79
tp80
Rp81
sg21
L2000L
sa(dp82
g2
S"Texte d'exemple 1"
p83
sg4
g5
(S'442.5'
p84
tp85
Rp86
sg9
g5
(S'110.0'
p87
tp88
Rp89
sg13
S'admin'
p90
sg15
L3L
sg16
g17
(S'\x07\xe0\x05\x0c\n\x12\x14\x00\x00\x00'
p91
tp92
Rp93
sg21
L1974L
sa(dp94
g2
S"Texte d'exemple 1"
p95
sg4
g5
(S'220.0'
p96
tp97
Rp98
sg9
g5
(S'35.0'
p99
tp100
Rp101
sg13
S'Julien'
p102
sg15
L60L
sg16
g17
(S'\x07\xe0\x05\x04\r\x170\x00\x00\x00'
p103
tp104
Rp105
sg21
L1200L
sa.