(lp0
(dp1
S'texte_mode_enh'
p2
S'Inconnu'
p3
sS'cpm'
p4
cdecimal
Decimal
p5
(S'9999.9'
p6
tp7
Rp8
sS'mpm'
p9
g5
(S'999.9'
p10
tp11
Rp12
sS'pseudo'
p13
S'#Big-Bang'
p14
sS'temps'
p15
L60L
sS'd_h'
p16
cdatetime
datetime
p17
(S'\x07\xd1\x01\x01\x00\x00\x00\x00\x00\x00'
p18
tp19
Rp20
sS'score'
p21
L1000000000L
sa(dp22
g2
S'Inconnu'
p23
sg4
g5
(S'1000.0'
p24
tp25
Rp26
sg9
g5
(S'200.0'
p27
tp28
Rp29
sg13
S'#Trou-Noir'
p30
sg15
L60L
sg16
g17
(S'\x07\xd1\x01\x01\x00\x00\x00\x00\x00\x00'
p31
tp32
Rp33
sg21
L5000L
sa(dp34
g2
S"Texte d'exemple 1"
p35
sg4
g5
(S'502.0'
p36
tp37
Rp38
sg9
g5
(S'105.4'
p39
tp40
Rp41
sg13
S'Thomas'
p42
sg15
L10L
sg16
g17
(S'\x07\xe0\x05\x14\x08;(\x00\x00\x00'
p43
tp44
Rp45
sg21
L3227L
sa(dp46
g2
S"Texte d'exemple 1"
p47
sg4
g5
(S'486.8'
p48
tp49
Rp50
sg9
g5
(S'102.2'
p51
tp52
Rp53
sg13
S'Thomas'
p54
sg15
L10L
sg16
g17
(S'\x07\xe0\x05\x0c\x0c6\x10\x00\x00\x00'
p55
tp56
Rp57
sg21
L3187L
sa(dp58
g2
S'Inconnu'
p59
sg4
g5
(S'500.0'
p60
tp61
Rp62
sg9
g5
(S'100.0'
p63
tp64
Rp65
sg13
S'#SuperNova'
p66
sg15
L60L
sg16
g17
(S'\x07\xd1\x01\x01\x00\x00\x00\x00\x00\x00'
p67
tp68
Rp69
sg21
L3000L
sa(dp70
g2
S'Les 100 mots les plus courants'
p71
sg4
g5
(S'378.3'
p72
tp73
Rp74
sg9
g5
(S'83.1'
p75
tp76
Rp77
sg13
S'Thomas'
p78
sg15
L60L
sg16
g17
(S"\x07\xe0\x05\x0f\n'\x1a\x00\x00\x00"
p79
tp80
Rp81
sg21
L2848L
sa(dp82
g2
S'Les 100 mots les plus courants'
p83
sg4
g5
(S'472.8'
p84
tp85
Rp86
sg9
g5
(S'106.9'
p87
tp88
Rp89
sg13
S'Thomas'
p90
sg15
L15L
sg16
g17
(S'\x07\xe0\x05\x0c\x0c.\x0f\x00\x00\x00'
p91
tp92
Rp93
sg21
L2798L
sa(dp94
g2
S"Texte d'exemple 1"
p95
sg4
g5
(S'382.2'
p96
tp97
Rp98
sg9
g5
(S'78.1'
p99
tp100
Rp101
sg13
S'Thomas'
p102
sg15
L60L
sg16
g17
(S'\x07\xe0\x05\x0f\n\x0c#\x00\x00\x00'
p103
tp104
Rp105
sg21
L2788L
sa(dp106
g2
S'Les 100 mots les plus courants'
p107
sg4
g5
(S'486.7'
p108
tp109
Rp110
sg9
g5
(S'84.6'
p111
tp112
Rp113
sg13
S'admin'
p114
sg15
L3L
sg16
g17
(S'\x07\xe0\x05\x14\x0b\x16"\x00\x00\x00'
p115
tp116
Rp117
sg21
L2324L
sa(dp118
g2
S"Texte d'exemple 1"
p119
sg4
g5
(S'341.3'
p120
tp121
Rp122
sg9
g5
(S'70.3'
p123
tp124
Rp125
sg13
S'Test_ISN1'
p126
sg15
L20L
sg16
g17
(S'\x07\xe0\x05\x14\x0b$ \x00\x00\x00'
p127
tp128
Rp129
sg21
L2034L
sa(dp130
g2
S'Les 1000 mots les plus courants'
p131
sg4
g5
(S'292.2'
p132
tp133
Rp134
sg9
g5
(S'41.6'
p135
tp136
Rp137
sg13
S'Donuts'
p138
sg15
L60L
sg16
g17
(S'\x07\xe0\x05\x0c\x0f"\'\x00\x00\x00'
p139
tp140
Rp141
sg21
L2004L
sa(dp142
g2
S'Inconnu'
p143
sg4
g5
(S'400.0'
p144
tp145
Rp146
sg9
g5
(S'80.0'
p147
tp148
Rp149
sg13
S'#Dieu'
p150
sg15
L60L
sg16
g17
(S'\x07\xd1\x01\x01\x00\x00\x00\x00\x00\x00'
p151
tp152
Rp153
sg21
L2000L
sa(dp154
g2
S'Les 100 mots les plus courants'
p155
sg4
g5
(S'364.6'
p156
tp157
Rp158
sg9
g5
(S'72.8'
p159
tp160
Rp161
sg13
S'Test_ISN2'
p162
sg15
L10L
sg16
g17
(S'\x07\xe0\x05\x14\x0b%\x1d\x00\x00\x00'
p163
tp164
Rp165
sg21
L1886L
sa(dp166
g2
S"Texte d'exemple 1"
p167
sg4
g5
(S'292.3'
p168
tp169
Rp170
sg9
g5
(S'68.3'
p171
tp172
Rp173
sg13
S'Jromary'
p174
sg15
L30L
sg16
g17
(S'\x07\xe0\x05\x14\t&\x0e\x00\x00\x00'
p175
tp176
Rp177
sg21
L1849L
sa(dp178
g2
S'Les 100 mots les plus courants'
p179
sg4
g5
(S'474.6'
p180
tp181
Rp182
sg9
g5
(S'116.7'
p183
tp184
Rp185
sg13
S'admin'
p186
sg15
L3L
sg16
g17
(S'\x07\xe0\x05\x14\x0b\x16\x13\x00\x00\x00'
p187
tp188
Rp189
sg21
L1822L
sa(dp190
g2
S'Les 100 mots les plus courants'
p191
sg4
g5
(S'283.4'
p192
tp193
Rp194
sg9
g5
(S'65.3'
p195
tp196
Rp197
sg13
S'julia'
p198
sg15
L60L
sg16
g17
(S'\x07\xe0\x05\x0f\n8&\x00\x00\x00'
p199
tp200
Rp201
sg21
L1729L
sa(dp202
g2
S'Mots avec la syllabe -cher'
p203
sg4
g5
(S'286.2'
p204
tp205
Rp206
sg9
g5
(S'34.8'
p207
tp208
Rp209
sg13
S'max la menace'
p210
sg15
L60L
sg16
g17
(S'\x07\xe0\x05\r\t+\x12\x00\x00\x00'
p211
tp212
Rp213
sg21
L1714L
sa(dp214
g2
S'Les 100 mots les plus courants'
p215
sg4
g5
(S'313.2'
p216
tp217
Rp218
sg9
g5
(S'69.8'
p219
tp220
Rp221
sg13
S'maxime'
p222
sg15
L60L
sg16
g17
(S'\x07\xe0\x05\x0f\n2\x13\x00\x00\x00'
p223
tp224
Rp225
sg21
L1651L
sa(dp226
g2
S"Texte d'exemple 1"
p227
sg4
g5
(S'222.7'
p228
tp229
Rp230
sg9
g5
(S'48.5'
p231
tp232
Rp233
sg13
S'max la menace'
p234
sg15
L60L
sg16
g17
(S'\x07\xe0\x05\x0c\x0f(\x13\x00\x00\x00'
p235
tp236
Rp237
sg21
L1621L
sa(dp238
g2
S"Texte d'exemple 1"
p239
sg4
g5
(S'301.1'
p240
tp241
Rp242
sg9
g5
(S'61.3'
p243
tp244
Rp245
sg13
S'nico'
p246
sg15
L60L
sg16
g17
(S'\x07\xe0\x05\x0f\n;7\x00\x00\x00'
p247
tp248
Rp249
sg21
L1599L
sa(dp250
g2
S"Texte d'exemple 1"
p251
sg4
g5
(S'287.1'
p252
tp253
Rp254
sg9
g5
(S'58.3'
p255
tp256
Rp257
sg13
S'nico'
p258
sg15
L60L
sg16
g17
(S'\x07\xe0\x05\x0f\x0b\x02(\x00\x00\x00'
p259
tp260
Rp261
sg21
L1533L
sa(dp262
g2
S"Texte d'exemple 1"
p263
sg4
g5
(S'298.9'
p264
tp265
Rp266
sg9
g5
(S'61.6'
p267
tp268
Rp269
sg13
S'ju'
p270
sg15
L60L
sg16
g17
(S'\x07\xe0\x05\x0f\n\x1d+\x00\x00\x00'
p271
tp272
Rp273
sg21
L1506L
sa(dp274
g2
S'Inconnu'
p275
sg4
g5
(S'300.0'
p276
tp277
Rp278
sg9
g5
(S'60.0'
p279
tp280
Rp281
sg13
S'#Demi-Dieu'
p282
sg15
L60L
sg16
g17
(S'\x07\xd1\x01\x01\x00\x00\x00\x00\x00\x00'
p283
tp284
Rp285
sg21
L1500L
sa(dp286
g2
S"Texte d'exemple 1"
p287
sg4
g5
(S'299.0'
p288
tp289
Rp290
sg9
g5
(S'61.1'
p291
tp292
Rp293
sg13
S'maxime'
p294
sg15
L60L
sg16
g17
(S'\x07\xe0\x05\x0f\n/\r\x00\x00\x00'
p295
tp296
Rp297
sg21
L1459L
sa(dp298
g2
S'Les 100 mots les plus courants'
p299
sg4
g5
(S'251.6'
p300
tp301
Rp302
sg9
g5
(S'61.9'
p303
tp304
Rp305
sg13
S'julia'
p306
sg15
L60L
sg16
g17
(S'\x07\xe0\x05\x0f\n7\x14\x00\x00\x00'
p307
tp308
Rp309
sg21
L1458L
sa(dp310
g2
S'Mots avec la syllabe -cher'
p311
sg4
g5
(S'279.2'
p312
tp313
Rp314
sg9
g5
(S'34.3'
p315
tp316
Rp317
sg13
S'Adrien'
p318
sg15
L60L
sg16
g17
(S'\x07\xe0\x05\r\t)"\x00\x00\x00'
p319
tp320
Rp321
sg21
L1220L
sa(dp322
g2
S"Texte d'exemple 1"
p323
sg4
g5
(S'261.4'
p324
tp325
Rp326
sg9
g5
(S'53.7'
p327
tp328
Rp329
sg13
S'ju'
p330
sg15
L60L
sg16
g17
(S'\x07\xe0\x05\x0f\n02\x00\x00\x00'
p331
tp332
Rp333
sg21
L1216L
sa(dp334
g2
S'Les 100 mots les plus courants'
p335
sg4
g5
(S'248.2'
p336
tp337
Rp338
sg9
g5
(S'55.5'
p339
tp340
Rp341
sg13
S'Alice'
p342
sg15
L60L
sg16
g17
(S'\x07\xe0\x05\x14\t)1\x00\x00\x00'
p343
tp344
Rp345
sg21
L1184L
sa(dp346
g2
S"Texte d'exemple 1"
p347
sg4
g5
(S'242.5'
p348
tp349
Rp350
sg9
g5
(S'48.6'
p351
tp352
Rp353
sg13
S'Antoine'
p354
sg15
L60L
sg16
g17
(S'\x07\xe0\x05\x0f\n3:\x00\x00\x00'
p355
tp356
Rp357
sg21
L1119L
sa(dp358
g2
S"Texte d'exemple 1"
p359
sg4
g5
(S'229.3'
p360
tp361
Rp362
sg9
g5
(S'46.7'
p363
tp364
Rp365
sg13
S'le bg de la street'
p366
sg15
L60L
sg16
g17
(S'\x07\xe0\x05\x0f\n$\x0b\x00\x00\x00'
p367
tp368
Rp369
sg21
L1101L
sa(dp370
g2
S"Texte d'exemple 1"
p371
sg4
g5
(S'224.6'
p372
tp373
Rp374
sg9
g5
(S'46.6'
p375
tp376
Rp377
sg13
S'maxime'
p378
sg15
L60L
sg16
g17
(S'\x07\xe0\x05\x0f\n"\x1d\x00\x00\x00'
p379
tp380
Rp381
sg21
L1084L
sa(dp382
g2
S"Texte d'exemple 1"
p383
sg4
g5
(S'217.9'
p384
tp385
Rp386
sg9
g5
(S'44.6'
p387
tp388
Rp389
sg13
S'phil'
p390
sg15
L60L
sg16
g17
(S'\x07\xe0\x05\x0f\n\x1f!\x00\x00\x00'
p391
tp392
Rp393
sg21
L1081L
sa(dp394
g2
S'Mots avec la syllabe -tion'
p395
sg4
g5
(S'266.6'
p396
tp397
Rp398
sg9
g5
(S'23.8'
p399
tp400
Rp401
sg13
S'Zoive'
p402
sg15
L35L
sg16
g17
(S'\x07\xe0\x05\r\t%\x13\x00\x00\x00'
p403
tp404
Rp405
sg21
L1019L
sa(dp406
g2
S'Inconnu'
p407
sg4
g5
(S'200.0'
p408
tp409
Rp410
sg9
g5
(S'40.0'
p411
tp412
Rp413
sg13
S'#Champion'
p414
sg15
L60L
sg16
g17
(S'\x07\xd1\x01\x01\x00\x00\x00\x00\x00\x00'
p415
tp416
Rp417
sg21
L1000L
sa(dp418
g2
S"Texte d'exemple 1"
p419
sg4
g5
(S'175.1'
p420
tp421
Rp422
sg9
g5
(S'34.9'
p423
tp424
Rp425
sg13
S'julia'
p426
sg15
L60L
sg16
g17
(S'\x07\xe0\x05\x0f\n\x1a\x0e\x00\x00\x00'
p427
tp428
Rp429
sg21
L934L
sa(dp430
g2
S"Texte d'exemple 1"
p431
sg4
g5
(S'220.0'
p432
tp433
Rp434
sg9
g5
(S'45.5'
p435
tp436
Rp437
sg13
S'ju'
p438
sg15
L60L
sg16
g17
(S'\x07\xe0\x05\x0f\n\x17\x1f\x00\x00\x00'
p439
tp440
Rp441
sg21
L920L
sa(dp442
g2
S'Les 1000 mots les plus courants'
p443
sg4
g5
(S'203.2'
p444
tp445
Rp446
sg9
g5
(S'33.6'
p447
tp448
Rp449
sg13
S'adri'
p450
sg15
L60L
sg16
g17
(S'\x07\xe0\x05\x0c\x0f\x1f$\x00\x00\x00'
p451
tp452
Rp453
sg21
L873L
sa(dp454
g2
S"Texte d'exemple 1"
p455
sg4
g5
(S'210.7'
p456
tp457
Rp458
sg9
g5
(S'44.8'
p459
tp460
Rp461
sg13
S'remidepain'
p462
sg15
L60L
sg16
g17
(S'\x07\xe0\x05\r\t8\x11\x00\x00\x00'
p463
tp464
Rp465
sg21
L834L
sa(dp466
g2
S"Texte d'exemple 1"
p467
sg4
g5
(S'219.8'
p468
tp469
Rp470
sg9
g5
(S'45.1'
p471
tp472
Rp473
sg13
S'Marie'
p474
sg15
L60L
sg16
g17
(S'\x07\xe0\x05\x0f\n\x0f\x10\x00\x00\x00'
p475
tp476
Rp477
sg21
L816L
sa(dp478
g2
S"Texte d'exemple 1"
p479
sg4
g5
(S'208.5'
p480
tp481
Rp482
sg9
g5
(S'42.6'
p483
tp484
Rp485
sg13
S'Marie'
p486
sg15
L60L
sg16
g17
(S'\x07\xe0\x05\x0f\n-\x1f\x00\x00\x00'
p487
tp488
Rp489
sg21
L814L
sa(dp490
g2
S"Texte d'exemple 1"
p491
sg4
g5
(S'225.2'
p492
tp493
Rp494
sg9
g5
(S'46.1'
p495
tp496
Rp497
sg13
S'Jromary'
p498
sg15
L30L
sg16
g17
(S'\x07\xe0\x05\x14\t#!\x00\x00\x00'
p499
tp500
Rp501
sg21
L783L
sa(dp502
g2
S"Texte d'exemple 1"
p503
sg4
g5
(S'177.6'
p504
tp505
Rp506
sg9
g5
(S'35.9'
p507
tp508
Rp509
sg13
S'bart le conqu\xc3\xa9rant'
p510
sg15
L60L
sg16
g17
(S'\x07\xe0\x05\r\t6\x1e\x00\x00\x00'
p511
tp512
Rp513
sg21
L754L
sa(dp514
g2
S'Inconnu'
p515
sg4
g5
(S'150.0'
p516
tp517
Rp518
sg9
g5
(S'30.0'
p519
tp520
Rp521
sg13
S'#Archer'
p522
sg15
L60L
sg16
g17
(S'\x07\xd1\x01\x01\x00\x00\x00\x00\x00\x00'
p523
tp524
Rp525
sg21
L750L
sa(dp526
g2
S"Texte d'exemple 1"
p527
sg4
g5
(S'173.3'
p528
tp529
Rp530
sg9
g5
(S'34.8'
p531
tp532
Rp533
sg13
S'Antoine'
p534
sg15
L60L
sg16
g17
(S'\x07\xe0\x05\x0f\n&\x02\x00\x00\x00'
p535
tp536
Rp537
sg21
L748L
sa(dp538
g2
S"Texte d'exemple 1"
p539
sg4
g5
(S'169.0'
p540
tp541
Rp542
sg9
g5
(S'34.0'
p543
tp544
Rp545
sg13
S'jo'
p546
sg15
L60L
sg16
g17
(S'\x07\xe0\x05\x0f\n+\x1b\x00\x00\x00'
p547
tp548
Rp549
sg21
L694L
sa(dp550
g2
S'Les 100 mots les plus courants'
p551
sg4
g5
(S'206.3'
p552
tp553
Rp554
sg9
g5
(S'43.6'
p555
tp556
Rp557
sg13
S'bart le conqu\xc3\xa9rant'
p558
sg15
L30L
sg16
g17
(S'\x07\xe0\x05\r\t3/\x00\x00\x00'
p559
tp560
Rp561
sg21
L671L
sa(dp562
g2
S"Texte d'exemple 1"
p563
sg4
g5
(S'182.3'
p564
tp565
Rp566
sg9
g5
(S'36.6'
p567
tp568
Rp569
sg13
S'Victorkikoo54'
p570
sg15
L60L
sg16
g17
(S'\x07\xe0\x05\r\t:\x1d\x00\x00\x00'
p571
tp572
Rp573
sg21
L657L
sa(dp574
g2
S"Texte d'exemple 1"
p575
sg4
g5
(S'183.6'
p576
tp577
Rp578
sg9
g5
(S'36.9'
p579
tp580
Rp581
sg13
S'v\xc3\xa9ro'
p582
sg15
L60L
sg16
g17
(S'\x07\xe0\x05\x0f\n\n\x13\x00\x00\x00'
p583
tp584
Rp585
sg21
L642L
sa(dp586
g2
S'Mots avec la syllabe -tion'
p587
sg4
g5
(S'179.1'
p588
tp589
Rp590
sg9
g5
(S'17.2'
p591
tp592
Rp593
sg13
S'Zoive'
p594
sg15
L35L
sg16
g17
(S'\x07\xe0\x05\r\t#;\x00\x00\x00'
p595
tp596
Rp597
sg21
L627L
sa(dp598
g2
S'Mots avec la syllabe -cher'
p599
sg4
g5
(S'176.0'
p600
tp601
Rp602
sg9
g5
(S'21.7'
p603
tp604
Rp605
sg13
S'bart le conqu\xc3\xa9rant'
p606
sg15
L120L
sg16
g17
(S'\x07\xe0\x05\r\t0\x1f\x00\x00\x00'
p607
tp608
Rp609
sg21
L611L
sa(dp610
g2
S"Texte d'exemple 1"
p611
sg4
g5
(S'144.1'
p612
tp613
Rp614
sg9
g5
(S'28.2'
p615
tp616
Rp617
sg13
S'leo'
p618
sg15
L60L
sg16
g17
(S'\x07\xe0\x05\x12\t\x00\x1a\x00\x00\x00'
p619
tp620
Rp621
sg21
L574L
sa(dp622
g2
S'Inconnu'
p623
sg4
g5
(S'100.0'
p624
tp625
Rp626
sg9
g5
(S'20.0'
p627
tp628
Rp629
sg13
S'#Guerrier'
p630
sg15
L60L
sg16
g17
(S'\x07\xd1\x01\x01\x00\x00\x00\x00\x00\x00'
p631
tp632
Rp633
sg21
L500L
sa(dp634
g2
S"Texte d'exemple 1"
p635
sg4
g5
(S'148.1'
p636
tp637
Rp638
sg9
g5
(S'29.6'
p639
tp640
Rp641
sg13
S'leo'
p642
sg15
L60L
sg16
g17
(S'\x07\xe0\x05\x12\t\x03-\x00\x00\x00'
p643
tp644
Rp645
sg21
L474L
sa(dp646
g2
S"Texte d'exemple 1"
p647
sg4
g5
(S'132.5'
p648
tp649
Rp650
sg9
g5
(S'26.9'
p651
tp652
Rp653
sg13
S'jjk'
p654
sg15
L60L
sg16
g17
(S'\x07\xe0\x05\x12\x0894\x00\x00\x00'
p655
tp656
Rp657
sg21
L423L
sa(dp658
g2
S"Texte d'exemple 1"
p659
sg4
g5
(S'125.1'
p660
tp661
Rp662
sg9
g5
(S'25.0'
p663
tp664
Rp665
sg13
S'zaza come back'
p666
sg15
L60L
sg16
g17
(S'\x07\xe0\x05\r\n\x01\x15\x00\x00\x00'
p667
tp668
Rp669
sg21
L414L
sa(dp670
g2
S"Texte d'exemple 1"
p671
sg4
g5
(S'110.9'
p672
tp673
Rp674
sg9
g5
(S'32.6'
p675
tp676
Rp677
sg13
S'jo'
p678
sg15
L60L
sg16
g17
(S'\x07\xe0\x05\x0f\n)\x1e\x00\x00\x00'
p679
tp680
Rp681
sg21
L390L
sa(dp682
g2
S"Texte d'exemple 1"
p683
sg4
g5
(S'133.1'
p684
tp685
Rp686
sg9
g5
(S'26.5'
p687
tp688
Rp689
sg13
S'milou'
p690
sg15
L60L
sg16
g17
(S'\x07\xe0\x05\x0c\x0f$"\x00\x00\x00'
p691
tp692
Rp693
sg21
L379L
sa(dp694
g2
S"Texte d'exemple 1"
p695
sg4
g5
(S'115.3'
p696
tp697
Rp698
sg9
g5
(S'23.7'
p699
tp700
Rp701
sg13
S'leo'
p702
sg15
L60L
sg16
g17
(S'\x07\xe0\x05\x12\t\x02\x01\x00\x00\x00'
p703
tp704
Rp705
sg21
L370L
sa(dp706
g2
S"Texte d'exemple 1"
p707
sg4
g5
(S'112.4'
p708
tp709
Rp710
sg9
g5
(S'25.4'
p711
tp712
Rp713
sg13
S'zaza'
p714
sg15
L60L
sg16
g17
(S'\x07\xe0\x05\x0c\x0f&\x15\x00\x00\x00'
p715
tp716
Rp717
sg21
L356L
sa(dp718
g2
S"Texte d'exemple 1"
p719
sg4
g5
(S'121.1'
p720
tp721
Rp722
sg9
g5
(S'24.5'
p723
tp724
Rp725
sg13
S'Erebade'
p726
sg15
L60L
sg16
g17
(S'\x07\xe0\x05\x14\t!\x18\x00\x00\x00'
p727
tp728
Rp729
sg21
L353L
sa(dp730
g2
S'Inconnu'
p731
sg4
g5
(S'50.0'
p732
tp733
Rp734
sg9
g5
(S'10.0'
p735
tp736
Rp737
sg13
S'#Novice'
p738
sg15
L60L
sg16
g17
(S'\x07\xd1\x01\x01\x00\x00\x00\x00\x00\x00'
p739
tp740
Rp741
sg21
L250L
sa(dp742
g2
S"Texte d'exemple 1"
p743
sg4
g5
(S'106.2'
p744
tp745
Rp746
sg9
g5
(S'22.0'
p747
tp748
Rp749
sg13
S'zibou'
p750
sg15
L60L
sg16
g17
(S'\x07\xe0\x05\x0f\n\x11 \x00\x00\x00'
p751
tp752
Rp753
sg21
L225L
sa(dp754
g2
S"Texte d'exemple 1"
p755
sg4
g5
(S'90.1'
p756
tp757
Rp758
sg9
g5
(S'18.5'
p759
tp760
Rp761
sg13
S'den'
p762
sg15
L60L
sg16
g17
(S'\x07\xe0\x05\x0f\n\x1b7\x00\x00\x00'
p763
tp764
Rp765
sg21
L205L
sa(dp766
g2
S"Texte d'exemple 1"
p767
sg4
g5
(S'67.2'
p768
tp769
Rp770
sg9
g5
(S'14.7'
p771
tp772
Rp773
sg13
S'den'
p774
sg15
L60L
sg16
g17
(S'\x07\xe0\x05\x0f\n\x14\x14\x00\x00\x00'
p775
tp776
Rp777
sg21
L120L
sa(dp778
g2
S'Inconnu'
p779
sg4
g5
(S'15.0'
p780
tp781
Rp782
sg9
g5
(S'3.0'
p783
tp784
Rp785
sg13
S'#Newbie'
p786
sg15
L60L
sg16
g17
(S'\x07\xd1\x01\x01\x00\x00\x00\x00\x00\x00'
p787
tp788
Rp789
sg21
L100L
sa.