(lp0
(dp1
S'texte_mode_enh'
p2
S'Les 100 mots les plus courants'
p3
sS'cpm'
p4
F463.6
sS'mpm'
p5
F136.0
sS'pseudo'
p6
S'admin'
p7
sS'temps'
p8
I3
sS'd_h'
p9
S'2016-05-09 20:54:16'
p10
sS'score'
p11
I2230
sa(dp12
S'texte_mode_enh'
p13
S"Texte d'exemple 1"
p14
sS'cpm'
p15
F447.2
sS'mpm'
p16
F104.5
sS'pseudo'
p17
S'admin'
p18
sS'temps'
p19
I3
sS'd_h'
p20
S'2016-05-09 20:54:08'
p21
sS'score'
p22
I1762
sa.