(lp0
(dp1
S'texte_mode_enh'
p2
S'Inconnu'
p3
sS'cpm'
p4
cdecimal
Decimal
p5
(S'1000.0'
p6
tp7
Rp8
sS'mpm'
p9
g5
(S'200.0'
p10
tp11
Rp12
sS'pseudo'
p13
S'#Trou-Noir'
p14
sS'temps'
p15
L60L
sS'd_h'
p16
cdatetime
datetime
p17
(S'\x07\xd1\x01\x01\x00\x00\x00\x00\x00\x00'
p18
tp19
Rp20
sS'score'
p21
L5000L
sa(dp22
g2
S"Texte d'exemple 1"
p23
sg4
g5
(S'486.8'
p24
tp25
Rp26
sg9
g5
(S'102.2'
p27
tp28
Rp29
sg13
S'Thomas'
p30
sg15
L10L
sg16
g17
(S'\x07\xe0\x05\x0c\x0c6\x10\x00\x00\x00'
p31
tp32
Rp33
sg21
L3187L
sa(dp34
g2
S'Inconnu'
p35
sg4
g5
(S'500.0'
p36
tp37
Rp38
sg9
g5
(S'100.0'
p39
tp40
Rp41
sg13
S'#SuperNova'
p42
sg15
L60L
sg16
g17
(S'\x07\xd1\x01\x01\x00\x00\x00\x00\x00\x00'
p43
tp44
Rp45
sg21
L3000L
sa(dp46
g2
S'Les 100 mots les plus courants'
p47
sg4
g5
(S'451.5'
p48
tp49
Rp50
sg9
g5
(S'102.3'
p51
tp52
Rp53
sg13
S'ThomasMKII'
p54
sg15
L10L
sg16
g17
(S'\x07\xe0\x05\x0c\x0f\x181\x00\x00\x00'
p55
tp56
Rp57
sg21
L2822L
sa(dp58
g2
S'Les 100 mots les plus courants'
p59
sg4
g5
(S'472.8'
p60
tp61
Rp62
sg9
g5
(S'106.9'
p63
tp64
Rp65
sg13
S'Thomas'
p66
sg15
L15L
sg16
g17
(S'\x07\xe0\x05\x0c\x0c.\x0f\x00\x00\x00'
p67
tp68
Rp69
sg21
L2798L
sa(dp70
S'texte_mode_enh'
p71
S"Texte d'exemple 1"
p72
sS'cpm'
p73
F361.1
sS'mpm'
p74
F73.4
sS'pseudo'
p75
S'ad'
p76
sS'temps'
p77
I10
sS'd_h'
p78
S'2016-05-12 22:12:08'
p79
sS'score'
p80
I2674
sa(dp81
S'texte_mode_enh'
p82
S"Texte d'exemple 1"
p83
sS'cpm'
p84
F549.7
sS'mpm'
p85
F127.9
sS'pseudo'
p86
S'admin'
p87
sS'temps'
p88
I3
sS'd_h'
p89
S'2016-05-12 22:32:33'
p90
sS'score'
p91
I2489
sa(dp92
g2
S"Texte d'exemple 1"
p93
sg4
g5
(S'481.2'
p94
tp95
Rp96
sg9
g5
(S'104.6'
p97
tp98
Rp99
sg13
S'Admin'
p100
sg15
L3L
sg16
g17
(S'\x07\xe0\x05\x0c\x1062\x00\x00\x00'
p101
tp102
Rp103
sg21
L2352L
sa(dp104
g2
S'Mots avec la syllabe -sser'
p105
sg4
g5
(S'416.0'
p106
tp107
Rp108
sg9
g5
(S'52.4'
p109
tp110
Rp111
sg13
S'ThomasMKII'
p112
sg15
L10L
sg16
g17
(S'\x07\xe0\x05\x0c\x0f\x073\x00\x00\x00'
p113
tp114
Rp115
sg21
L2338L
sa(dp116
g2
S'Mots avec la syllabe -ion'
p117
sg4
g5
(S'406.1'
p118
tp119
Rp120
sg9
g5
(S'43.5'
p121
tp122
Rp123
sg13
S'Thomas'
p124
sg15
L10L
sg16
g17
(S'\x07\xe0\x05\x0c\x0c8\x14\x00\x00\x00'
p125
tp126
Rp127
sg21
L2284L
sa(dp128
S'texte_mode_enh'
p129
S"Texte d'exemple 1"
p130
sS'cpm'
p131
F423.8
sS'mpm'
p132
F92.6
sS'pseudo'
p133
S'Anonyme'
p134
sS'temps'
p135
I10
sS'd_h'
p136
S'2016-05-12 21:59:53'
p137
sS'score'
p138
I2280
sa(dp139
S'texte_mode_enh'
p140
S"Texte d'exemple 1"
p141
sS'cpm'
p142
F565.1
sS'mpm'
p143
F125.6
sS'pseudo'
p144
S'admin'
p145
sS'temps'
p146
I2
sS'd_h'
p147
S'2016-05-12 22:08:21'
p148
sS'score'
p149
I2193
sa(dp150
S'texte_mode_enh'
p151
S"Texte d'exemple 1"
p152
sS'cpm'
p153
F513.0
sS'mpm'
p154
F112.8
sS'pseudo'
p155
S'admin'
p156
sS'temps'
p157
I3
sS'd_h'
p158
S'2016-05-12 22:11:07'
p159
sS'score'
p160
I2181
sa(dp161
S'texte_mode_enh'
p162
S"Texte d'exemple 1"
p163
sS'cpm'
p164
F538.4
sS'mpm'
p165
F128.2
sS'pseudo'
p166
S'admin'
p167
sS'temps'
p168
I2
sS'd_h'
p169
S'2016-05-12 21:56:39'
p170
sS'score'
p171
I2167
sa(dp172
g2
S'Mots avec la syllabe -sser'
p173
sg4
g5
(S'406.4'
p174
tp175
Rp176
sg9
g5
(S'40.1'
p177
tp178
Rp179
sg13
S'ThomasMKII'
p180
sg15
L10L
sg16
g17
(S'\x07\xe0\x05\x0c\x0f\x162\x00\x00\x00'
p181
tp182
Rp183
sg21
L2156L
sa(dp184
S'texte_mode_enh'
p185
S"Texte d'exemple 1"
p186
sS'cpm'
p187
F374.6
sS'mpm'
p188
F76.0
sS'pseudo'
p189
S'Thomas SDF'
p190
sS'temps'
p191
I10
sS'd_h'
p192
S'2016-05-12 22:02:22'
p193
sS'score'
p194
I2101
sa(dp195
S'texte_mode_enh'
p196
S"Texte d'exemple 1"
p197
sS'cpm'
p198
F496.0
sS'mpm'
p199
F107.8
sS'pseudo'
p200
S'admin'
p201
sS'temps'
p202
I3
sS'd_h'
p203
S'2016-05-12 22:33:37'
p204
sS'score'
p205
I2061
sa(dp206
S'texte_mode_enh'
p207
S"Texte d'exemple 2"
p208
sS'cpm'
p209
F400.7
sS'mpm'
p210
F84.4
sS'pseudo'
p211
S'Anonyme'
p212
sS'temps'
p213
I10
sS'd_h'
p214
S'2016-05-12 22:03:48'
p215
sS'score'
p216
I2017
sa(dp217
g2
S'Les 1000 mots les plus courants'
p218
sg4
g5
(S'292.2'
p219
tp220
Rp221
sg9
g5
(S'41.6'
p222
tp223
Rp224
sg13
S'Donuts'
p225
sg15
L60L
sg16
g17
(S'\x07\xe0\x05\x0c\x0f"\'\x00\x00\x00'
p226
tp227
Rp228
sg21
L2004L
sa(dp229
S'texte_mode_enh'
p230
S"Texte d'exemple 1"
p231
sS'cpm'
p232
F507.5
sS'mpm'
p233
F113.3
sS'pseudo'
p234
S'admin'
p235
sS'temps'
p236
I3
sS'd_h'
p237
S'2016-05-12 22:10:40'
p238
sS'score'
p239
I2001
sa(dp240
g2
S'Inconnu'
p241
sg4
g5
(S'400.0'
p242
tp243
Rp244
sg9
g5
(S'80.0'
p245
tp246
Rp247
sg13
S'#Dieu'
p248
sg15
L60L
sg16
g17
(S'\x07\xd1\x01\x01\x00\x00\x00\x00\x00\x00'
p249
tp250
Rp251
sg21
L2000L
sa(dp252
S'texte_mode_enh'
p253
S"Texte d'exemple 1"
p254
sS'cpm'
p255
F537.0
sS'mpm'
p256
F132.6
sS'pseudo'
p257
S'admin'
p258
sS'temps'
p259
I2
sS'd_h'
p260
S'2016-05-12 22:13:18'
p261
sS'score'
p262
I1999
sa(dp263
S'texte_mode_enh'
p264
S"Texte d'exemple 1"
p265
sS'cpm'
p266
F366.8
sS'mpm'
p267
F77.2
sS'pseudo'
p268
S'couic'
p269
sS'temps'
p270
I10
sS'd_h'
p271
S'2016-05-12 22:09:39'
p272
sS'score'
p273
I1947
sa(dp274
S'texte_mode_enh'
p275
S"Texte d'exemple 1"
p276
sS'cpm'
p277
F531.8
sS'mpm'
p278
F128.1
sS'pseudo'
p279
S'admin'
p280
sS'temps'
p281
I2
sS'd_h'
p282
S'2016-05-12 22:08:00'
p283
sS'score'
p284
I1908
sa(dp285
S'texte_mode_enh'
p286
S"Texte d'exemple 1"
p287
sS'cpm'
p288
F495.7
sS'mpm'
p289
F115.6
sS'pseudo'
p290
S'admin'
p291
sS'temps'
p292
I2
sS'd_h'
p293
S'2016-05-12 21:57:17'
p294
sS'score'
p295
I1832
sa(dp296
S'texte_mode_enh'
p297
S"Texte d'exemple 1"
p298
sS'cpm'
p299
F488.4
sS'mpm'
p300
F119.6
sS'pseudo'
p301
S'admin'
p302
sS'temps'
p303
I2
sS'd_h'
p304
S'2016-05-12 22:07:52'
p305
sS'score'
p306
I1705
sa(dp307
g2
S'Les 100 mots les plus courants'
p308
sg4
g5
(S'321.5'
p309
tp310
Rp311
sg9
g5
(S'62.7'
p312
tp313
Rp314
sg13
S'Thommy'
p315
sg15
L10L
sg16
g17
(S'\x07\xe0\x05\x0c\x0f\x1b,\x00\x00\x00'
p316
tp317
Rp318
sg21
L1686L
sa(dp319
g2
S"Texte d'exemple 1"
p320
sg4
g5
(S'222.7'
p321
tp322
Rp323
sg9
g5
(S'48.5'
p324
tp325
Rp326
sg13
S'max la menace'
p327
sg15
L60L
sg16
g17
(S'\x07\xe0\x05\x0c\x0f(\x13\x00\x00\x00'
p328
tp329
Rp330
sg21
L1621L
sa(dp331
g2
S'Inconnu'
p332
sg4
g5
(S'300.0'
p333
tp334
Rp335
sg9
g5
(S'60.0'
p336
tp337
Rp338
sg13
S'#Demi-Dieu'
p339
sg15
L60L
sg16
g17
(S'\x07\xd1\x01\x01\x00\x00\x00\x00\x00\x00'
p340
tp341
Rp342
sg21
L1500L
sa(dp343
S'texte_mode_enh'
p344
S"Texte d'exemple 1"
p345
sS'cpm'
p346
F467.2
sS'mpm'
p347
F126.7
sS'pseudo'
p348
S'admin'
p349
sS'temps'
p350
I2
sS'd_h'
p351
S'2016-05-12 22:14:13'
p352
sS'score'
p353
I1493
sa(dp354
S'texte_mode_enh'
p355
S"Texte d'exemple 1"
p356
sS'cpm'
p357
F435.4
sS'mpm'
p358
F106.3
sS'pseudo'
p359
S'admin'
p360
sS'temps'
p361
I2
sS'd_h'
p362
S'2016-05-12 21:57:37'
p363
sS'score'
p364
I1423
sa(dp365
g2
S'Texte personnalis\xc3\xa9 : ID\tPseudo\t...'
p366
sg4
g5
(S'288.1'
p367
tp368
Rp369
sg9
g5
(S'52.2'
p370
tp371
Rp372
sg13
S'Thommy'
p373
sg15
L10L
sg16
g17
(S'\x07\xe0\x05\x0c\x0f\x1d\t\x00\x00\x00'
p374
tp375
Rp376
sg21
L1410L
sa(dp377
g2
S'Inconnu'
p378
sg4
g5
(S'200.0'
p379
tp380
Rp381
sg9
g5
(S'40.0'
p382
tp383
Rp384
sg13
S'#Champion'
p385
sg15
L60L
sg16
g17
(S'\x07\xd1\x01\x01\x00\x00\x00\x00\x00\x00'
p386
tp387
Rp388
sg21
L1000L
sa(dp389
g2
S'Les 1000 mots les plus courants'
p390
sg4
g5
(S'203.2'
p391
tp392
Rp393
sg9
g5
(S'33.6'
p394
tp395
Rp396
sg13
S'adri'
p397
sg15
L60L
sg16
g17
(S'\x07\xe0\x05\x0c\x0f\x1f$\x00\x00\x00'
p398
tp399
Rp400
sg21
L873L
sa(dp401
g2
S'Inconnu'
p402
sg4
g5
(S'150.0'
p403
tp404
Rp405
sg9
g5
(S'30.0'
p406
tp407
Rp408
sg13
S'#Archer'
p409
sg15
L60L
sg16
g17
(S'\x07\xd1\x01\x01\x00\x00\x00\x00\x00\x00'
p410
tp411
Rp412
sg21
L750L
sa(dp413
g2
S'Inconnu'
p414
sg4
g5
(S'100.0'
p415
tp416
Rp417
sg9
g5
(S'20.0'
p418
tp419
Rp420
sg13
S'#Guerrier'
p421
sg15
L60L
sg16
g17
(S'\x07\xd1\x01\x01\x00\x00\x00\x00\x00\x00'
p422
tp423
Rp424
sg21
L500L
sa(dp425
g2
S"Texte d'exemple 1"
p426
sg4
g5
(S'133.1'
p427
tp428
Rp429
sg9
g5
(S'26.5'
p430
tp431
Rp432
sg13
S'milou'
p433
sg15
L60L
sg16
g17
(S'\x07\xe0\x05\x0c\x0f$"\x00\x00\x00'
p434
tp435
Rp436
sg21
L379L
sa(dp437
g2
S"Texte d'exemple 1"
p438
sg4
g5
(S'112.4'
p439
tp440
Rp441
sg9
g5
(S'25.4'
p442
tp443
Rp444
sg13
S'zaza'
p445
sg15
L60L
sg16
g17
(S'\x07\xe0\x05\x0c\x0f&\x15\x00\x00\x00'
p446
tp447
Rp448
sg21
L356L
sa(dp449
g2
S'Inconnu'
p450
sg4
g5
(S'50.0'
p451
tp452
Rp453
sg9
g5
(S'10.0'
p454
tp455
Rp456
sg13
S'#Novice'
p457
sg15
L60L
sg16
g17
(S'\x07\xd1\x01\x01\x00\x00\x00\x00\x00\x00'
p458
tp459
Rp460
sg21
L250L
sa(dp461
g2
S'Inconnu'
p462
sg4
g5
(S'15.0'
p463
tp464
Rp465
sg9
g5
(S'3.0'
p466
tp467
Rp468
sg13
S'#Newbie'
p469
sg15
L60L
sg16
g17
(S'\x07\xd1\x01\x01\x00\x00\x00\x00\x00\x00'
p470
tp471
Rp472
sg21
L100L
sa.