(lp0
(dp1
S'texte_mode_enh'
p2
S'Mots avec la syllabe -sser'
p3
sS'cpm'
p4
F330.1
sS'mpm'
p5
F38.0
sS'pseudo'
p6
S'Anonyme'
p7
sS'temps'
p8
I60
sS'd_h'
p9
S'2016-05-08 10:58:47'
p10
sS'score'
p11
I2689
sa(dp12
S'texte_mode_enh'
p13
S"Texte d'exemple 1"
p14
sS'cpm'
p15
F426.7
sS'mpm'
p16
F93.3
sS'pseudo'
p17
S'Anonyme'
p18
sS'temps'
p19
I10
sS'd_h'
p20
S'2016-05-08 15:02:19'
p21
sS'score'
p22
I2288
sa(dp23
S'texte_mode_enh'
p24
S"Texte d'exemple 1"
p25
sS'cpm'
p26
F408.7
sS'mpm'
p27
F90.2
sS'pseudo'
p28
S'Anonyme'
p29
sS'temps'
p30
I10
sS'd_h'
p31
S'2016-05-08 15:00:47'
p32
sS'score'
p33
I2181
sa(dp34
S'texte_mode_enh'
p35
S'Mots avec la syllabe -sser'
p36
sS'cpm'
p37
F321.2
sS'mpm'
p38
F36.8
sS'pseudo'
p39
S'Anonyme'
p40
sS'temps'
p41
I60
sS'd_h'
p42
S'2016-05-08 10:51:59'
p43
sS'score'
p44
I1911
sa(dp45
S'texte_mode_enh'
p46
S"Texte d'exemple 1"
p47
sS'cpm'
p48
F416.9
sS'mpm'
p49
F91.2
sS'pseudo'
p50
S'Anonyme'
p51
sS'temps'
p52
I5
sS'd_h'
p53
S'2016-05-05 21:45:05'
p54
sS'score'
p55
I1889
sa.