(lp0
(dp1
S'texte_mode_enh'
p2
S'Inconnu'
p3
sS'cpm'
p4
cdecimal
Decimal
p5
(S'9999.9'
p6
tp7
Rp8
sS'mpm'
p9
g5
(S'999.9'
p10
tp11
Rp12
sS'pseudo'
p13
S'#Big-Bang'
p14
sS'temps'
p15
L60L
sS'd_h'
p16
cdatetime
datetime
p17
(S'\x07\xd1\x01\x01\x00\x00\x00\x00\x00\x00'
p18
tp19
Rp20
sS'score'
p21
L1000000000L
sa(dp22
g2
S'Inconnu'
p23
sg4
g5
(S'1000.0'
p24
tp25
Rp26
sg9
g5
(S'200.0'
p27
tp28
Rp29
sg13
S'#Trou-Noir'
p30
sg15
L60L
sg16
g17
(S'\x07\xd1\x01\x01\x00\x00\x00\x00\x00\x00'
p31
tp32
Rp33
sg21
L5000L
sa(dp34
g2
S"Texte d'exemple 1"
p35
sg4
g5
(S'486.8'
p36
tp37
Rp38
sg9
g5
(S'102.2'
p39
tp40
Rp41
sg13
S'Thomas'
p42
sg15
L10L
sg16
g17
(S'\x07\xe0\x05\x0c\x0c6\x10\x00\x00\x00'
p43
tp44
Rp45
sg21
L3187L
sa(dp46
g2
S'Inconnu'
p47
sg4
g5
(S'500.0'
p48
tp49
Rp50
sg9
g5
(S'100.0'
p51
tp52
Rp53
sg13
S'#SuperNova'
p54
sg15
L60L
sg16
g17
(S'\x07\xd1\x01\x01\x00\x00\x00\x00\x00\x00'
p55
tp56
Rp57
sg21
L3000L
sa(dp58
g2
S'Les 100 mots les plus courants'
p59
sg4
g5
(S'451.5'
p60
tp61
Rp62
sg9
g5
(S'102.3'
p63
tp64
Rp65
sg13
S'ThomasMKII'
p66
sg15
L10L
sg16
g17
(S'\x07\xe0\x05\x0c\x0f\x181\x00\x00\x00'
p67
tp68
Rp69
sg21
L2822L
sa(dp70
g2
S'Les 100 mots les plus courants'
p71
sg4
g5
(S'472.8'
p72
tp73
Rp74
sg9
g5
(S'106.9'
p75
tp76
Rp77
sg13
S'Thomas'
p78
sg15
L15L
sg16
g17
(S'\x07\xe0\x05\x0c\x0c.\x0f\x00\x00\x00'
p79
tp80
Rp81
sg21
L2798L
sa(dp82
g2
S"Texte d'exemple 1"
p83
sg4
g5
(S'564.4'
p84
tp85
Rp86
sg9
g5
(S'128.9'
p87
tp88
Rp89
sg13
S'Admin'
p90
sg15
L3L
sg16
g17
(S'\x07\xe0\x05\x0c\x162\x17\x00\x00\x00'
p91
tp92
Rp93
sg21
L2685L
sa(dp94
g2
S"Texte d'exemple 1"
p95
sg4
g5
(S'481.2'
p96
tp97
Rp98
sg9
g5
(S'104.6'
p99
tp100
Rp101
sg13
S'Admin'
p102
sg15
L3L
sg16
g17
(S'\x07\xe0\x05\x0c\x1062\x00\x00\x00'
p103
tp104
Rp105
sg21
L2352L
sa(dp106
g2
S'Mots avec la syllabe -sser'
p107
sg4
g5
(S'416.0'
p108
tp109
Rp110
sg9
g5
(S'52.4'
p111
tp112
Rp113
sg13
S'ThomasMKII'
p114
sg15
L10L
sg16
g17
(S'\x07\xe0\x05\x0c\x0f\x073\x00\x00\x00'
p115
tp116
Rp117
sg21
L2338L
sa(dp118
g2
S'Mots avec la syllabe -ion'
p119
sg4
g5
(S'406.1'
p120
tp121
Rp122
sg9
g5
(S'43.5'
p123
tp124
Rp125
sg13
S'Thomas'
p126
sg15
L10L
sg16
g17
(S'\x07\xe0\x05\x0c\x0c8\x14\x00\x00\x00'
p127
tp128
Rp129
sg21
L2284L
sa(dp130
g2
S"Texte d'exemple 1"
p131
sg4
g5
(S'428.8'
p132
tp133
Rp134
sg9
g5
(S'97.5'
p135
tp136
Rp137
sg13
S'Admin'
p138
sg15
L10L
sg16
g17
(S'\x07\xe0\x05\x0c\x17\n\x10\x00\x00\x00'
p139
tp140
Rp141
sg21
L2235L
sa(dp142
g2
S"Texte d'exemple 1"
p143
sg4
g5
(S'428.8'
p144
tp145
Rp146
sg9
g5
(S'97.5'
p147
tp148
Rp149
sg13
S'Admin'
p150
sg15
L10L
sg16
g17
(S'\x07\xe0\x05\x0c\x17\n\x10\x00\x00\x00'
p151
tp152
Rp153
sg21
L2235L
sa(dp154
g2
S"Texte d'exemple 1"
p155
sg4
g5
(S'428.8'
p156
tp157
Rp158
sg9
g5
(S'97.5'
p159
tp160
Rp161
sg13
S'Admin'
p162
sg15
L10L
sg16
g17
(S'\x07\xe0\x05\x0c\x17\n\x10\x00\x00\x00'
p163
tp164
Rp165
sg21
L2235L
sa(dp166
g2
S'Mots avec la syllabe -sser'
p167
sg4
g5
(S'406.4'
p168
tp169
Rp170
sg9
g5
(S'40.1'
p171
tp172
Rp173
sg13
S'ThomasMKII'
p174
sg15
L10L
sg16
g17
(S'\x07\xe0\x05\x0c\x0f\x162\x00\x00\x00'
p175
tp176
Rp177
sg21
L2156L
sa(dp178
g2
S'Les 1000 mots les plus courants'
p179
sg4
g5
(S'292.2'
p180
tp181
Rp182
sg9
g5
(S'41.6'
p183
tp184
Rp185
sg13
S'Donuts'
p186
sg15
L60L
sg16
g17
(S'\x07\xe0\x05\x0c\x0f"\'\x00\x00\x00'
p187
tp188
Rp189
sg21
L2004L
sa(dp190
g2
S'Inconnu'
p191
sg4
g5
(S'400.0'
p192
tp193
Rp194
sg9
g5
(S'80.0'
p195
tp196
Rp197
sg13
S'#Dieu'
p198
sg15
L60L
sg16
g17
(S'\x07\xd1\x01\x01\x00\x00\x00\x00\x00\x00'
p199
tp200
Rp201
sg21
L2000L
sa(dp202
g2
S'Les 100 mots les plus courants'
p203
sg4
g5
(S'321.5'
p204
tp205
Rp206
sg9
g5
(S'62.7'
p207
tp208
Rp209
sg13
S'Thommy'
p210
sg15
L10L
sg16
g17
(S'\x07\xe0\x05\x0c\x0f\x1b,\x00\x00\x00'
p211
tp212
Rp213
sg21
L1686L
sa(dp214
g2
S"Texte d'exemple 1"
p215
sg4
g5
(S'222.7'
p216
tp217
Rp218
sg9
g5
(S'48.5'
p219
tp220
Rp221
sg13
S'max la menace'
p222
sg15
L60L
sg16
g17
(S'\x07\xe0\x05\x0c\x0f(\x13\x00\x00\x00'
p223
tp224
Rp225
sg21
L1621L
sa(dp226
g2
S'Inconnu'
p227
sg4
g5
(S'300.0'
p228
tp229
Rp230
sg9
g5
(S'60.0'
p231
tp232
Rp233
sg13
S'#Demi-Dieu'
p234
sg15
L60L
sg16
g17
(S'\x07\xd1\x01\x01\x00\x00\x00\x00\x00\x00'
p235
tp236
Rp237
sg21
L1500L
sa(dp238
g2
S'Texte personnalis\xc3\xa9 : ID\tPseudo\t...'
p239
sg4
g5
(S'288.1'
p240
tp241
Rp242
sg9
g5
(S'52.2'
p243
tp244
Rp245
sg13
S'Thommy'
p246
sg15
L10L
sg16
g17
(S'\x07\xe0\x05\x0c\x0f\x1d\t\x00\x00\x00'
p247
tp248
Rp249
sg21
L1410L
sa(dp250
g2
S'Inconnu'
p251
sg4
g5
(S'200.0'
p252
tp253
Rp254
sg9
g5
(S'40.0'
p255
tp256
Rp257
sg13
S'#Champion'
p258
sg15
L60L
sg16
g17
(S'\x07\xd1\x01\x01\x00\x00\x00\x00\x00\x00'
p259
tp260
Rp261
sg21
L1000L
sa(dp262
g2
S'Les 1000 mots les plus courants'
p263
sg4
g5
(S'203.2'
p264
tp265
Rp266
sg9
g5
(S'33.6'
p267
tp268
Rp269
sg13
S'adri'
p270
sg15
L60L
sg16
g17
(S'\x07\xe0\x05\x0c\x0f\x1f$\x00\x00\x00'
p271
tp272
Rp273
sg21
L873L
sa(dp274
g2
S'Inconnu'
p275
sg4
g5
(S'150.0'
p276
tp277
Rp278
sg9
g5
(S'30.0'
p279
tp280
Rp281
sg13
S'#Archer'
p282
sg15
L60L
sg16
g17
(S'\x07\xd1\x01\x01\x00\x00\x00\x00\x00\x00'
p283
tp284
Rp285
sg21
L750L
sa(dp286
g2
S'Inconnu'
p287
sg4
g5
(S'100.0'
p288
tp289
Rp290
sg9
g5
(S'20.0'
p291
tp292
Rp293
sg13
S'#Guerrier'
p294
sg15
L60L
sg16
g17
(S'\x07\xd1\x01\x01\x00\x00\x00\x00\x00\x00'
p295
tp296
Rp297
sg21
L500L
sa(dp298
g2
S"Texte d'exemple 1"
p299
sg4
g5
(S'133.1'
p300
tp301
Rp302
sg9
g5
(S'26.5'
p303
tp304
Rp305
sg13
S'milou'
p306
sg15
L60L
sg16
g17
(S'\x07\xe0\x05\x0c\x0f$"\x00\x00\x00'
p307
tp308
Rp309
sg21
L379L
sa(dp310
g2
S"Texte d'exemple 1"
p311
sg4
g5
(S'112.4'
p312
tp313
Rp314
sg9
g5
(S'25.4'
p315
tp316
Rp317
sg13
S'zaza'
p318
sg15
L60L
sg16
g17
(S'\x07\xe0\x05\x0c\x0f&\x15\x00\x00\x00'
p319
tp320
Rp321
sg21
L356L
sa(dp322
g2
S'Inconnu'
p323
sg4
g5
(S'50.0'
p324
tp325
Rp326
sg9
g5
(S'10.0'
p327
tp328
Rp329
sg13
S'#Novice'
p330
sg15
L60L
sg16
g17
(S'\x07\xd1\x01\x01\x00\x00\x00\x00\x00\x00'
p331
tp332
Rp333
sg21
L250L
sa(dp334
g2
S'Inconnu'
p335
sg4
g5
(S'15.0'
p336
tp337
Rp338
sg9
g5
(S'3.0'
p339
tp340
Rp341
sg13
S'#Newbie'
p342
sg15
L60L
sg16
g17
(S'\x07\xd1\x01\x01\x00\x00\x00\x00\x00\x00'
p343
tp344
Rp345
sg21
L100L
sa.