(lp0
(dp1
S'texte_mode_enh'
p2
S'Inconnu'
p3
sS'cpm'
p4
cdecimal
Decimal
p5
(S'500.0'
p6
tp7
Rp8
sS'mpm'
p9
g5
(S'125.0'
p10
tp11
Rp12
sS'pseudo'
p13
S'GodLike'
p14
sS'temps'
p15
L60L
sS'd_h'
p16
cdatetime
datetime
p17
(S'\x07\xe0\x05\x04\x142\x1f\x00\x00\x00'
p18
tp19
Rp20
sS'score'
p21
L5000L
sa(dp22
g2
S"Texte d'exemple 1"
p23
sg4
g5
(S'400.0'
p24
tp25
Rp26
sg9
g5
(S'80.0'
p27
tp28
Rp29
sg13
S'Thomas'
p30
sg15
L60L
sg16
g17
(S'\x07\xe0\x05\x04\x0c\x17"\x00\x00\x00'
p31
tp32
Rp33
sg21
L3000L
sa(dp34
g2
S"Texte d'exemple 1"
p35
sg4
g5
(S'332.0'
p36
tp37
Rp38
sg9
g5
(S'53.0'
p39
tp40
Rp41
sg13
S'Adrien'
p42
sg15
L60L
sg16
g17
(S'\x07\xe0\x05\n\x10\x02"\x00\x00\x00'
p43
tp44
Rp45
sg21
L2000L
sa(dp46
S'texte_mode_enh'
p47
S"Texte d'exemple 1"
p48
sS'cpm'
p49
F442.5
sS'mpm'
p50
F110.0
sS'pseudo'
p51
S'admin'
p52
sS'temps'
p53
I3
sS'd_h'
p54
S'2016-05-12 10:18:20'
p55
sS'score'
p56
I1974
sa(dp57
g2
S"Texte d'exemple 1"
p58
sg4
g5
(S'220.0'
p59
tp60
Rp61
sg9
g5
(S'35.0'
p62
tp63
Rp64
sg13
S'Julien'
p65
sg15
L60L
sg16
g17
(S'\x07\xe0\x05\x04\r\x170\x00\x00\x00'
p66
tp67
Rp68
sg21
L1200L
sa.