(lp0
S'ea889b18743387db7bdbc101a7821554'
p1
aS'92c1d8bfa8a07a6c389263c2a363bb7c'
p2
aS'35796ddbb904c41f35d474f0bed9d983'
p3
aS'2be97fa66f59abed2b290d91f0c9bc4e'
p4
aS'77e6e055456f74ac5e7ef30f2a5d2283'
p5
aS'b584136cf2f0f8ce1ba8f00795b37ee7'
p6
aS'fa5a80ddaee78cb9b2c1e0de29f80f35'
p7
aS'04a70d2ab9552486c303450036bed4ff'
p8
aS'62cc9cc32a4b12a0dd525c63ab086dab'
p9
aS'00184ad5f4400e57d9349ed99f7d8e34'
p10
a.