(lp0
(dp1
S'texte_mode_enh'
p2
S'Inconnu'
p3
sS'cpm'
p4
cdecimal
Decimal
p5
(S'9999.9'
p6
tp7
Rp8
sS'mpm'
p9
g5
(S'999.9'
p10
tp11
Rp12
sS'pseudo'
p13
S'#Big-Bang'
p14
sS'temps'
p15
L60L
sS'd_h'
p16
cdatetime
datetime
p17
(S'\x07\xd1\x01\x01\x00\x00\x00\x00\x00\x00'
p18
tp19
Rp20
sS'score'
p21
L1000000000L
sa(dp22
g2
S'Inconnu'
p23
sg4
g5
(S'1000.0'
p24
tp25
Rp26
sg9
g5
(S'200.0'
p27
tp28
Rp29
sg13
S'#Trou-Noir'
p30
sg15
L60L
sg16
g17
(S'\x07\xd1\x01\x01\x00\x00\x00\x00\x00\x00'
p31
tp32
Rp33
sg21
L5000L
sa(dp34
S'texte_mode_enh'
p35
S"Texte d'exemple 1"
p36
sS'cpm'
p37
F469.9
sS'mpm'
p38
F96.4
sS'pseudo'
p39
S'Thomas'
p40
sS'temps'
p41
I10
sS'd_h'
p42
S'2016-05-26 10:16:27'
p43
sS'score'
p44
I3622
sa(dp45
g2
S'Inconnu'
p46
sg4
g5
(S'500.0'
p47
tp48
Rp49
sg9
g5
(S'100.0'
p50
tp51
Rp52
sg13
S'#SuperNova'
p53
sg15
L60L
sg16
g17
(S'\x07\xd1\x01\x01\x00\x00\x00\x00\x00\x00'
p54
tp55
Rp56
sg21
L3000L
sa(dp57
S'texte_mode_enh'
p58
S'Les 100 mots les plus courants'
p59
sS'cpm'
p60
F460.2
sS'mpm'
p61
F96.9
sS'pseudo'
p62
S'Thomas2'
p63
sS'temps'
p64
I20
sS'd_h'
p65
S'2016-07-28 14:41:12'
p66
sS'score'
p67
I2897
sa(dp68
S'texte_mode_enh'
p69
S'Mots avec la syllabe -ion'
p70
sS'cpm'
p71
F336.2
sS'mpm'
p72
F30.8
sS'pseudo'
p73
S'Thomas2'
p74
sS'temps'
p75
I20
sS'd_h'
p76
S'2016-07-28 14:42:10'
p77
sS'score'
p78
I2023
sa(dp79
g2
S'Inconnu'
p80
sg4
g5
(S'400.0'
p81
tp82
Rp83
sg9
g5
(S'80.0'
p84
tp85
Rp86
sg13
S'#Dieu'
p87
sg15
L60L
sg16
g17
(S'\x07\xd1\x01\x01\x00\x00\x00\x00\x00\x00'
p88
tp89
Rp90
sg21
L2000L
sa(dp91
g2
S'Inconnu'
p92
sg4
g5
(S'300.0'
p93
tp94
Rp95
sg9
g5
(S'60.0'
p96
tp97
Rp98
sg13
S'#Demi-Dieu'
p99
sg15
L60L
sg16
g17
(S'\x07\xd1\x01\x01\x00\x00\x00\x00\x00\x00'
p100
tp101
Rp102
sg21
L1500L
sa(dp103
S'texte_mode_enh'
p104
S'Les 100 mots les plus courants'
p105
sS'cpm'
p106
F224.9
sS'mpm'
p107
F48.8
sS'pseudo'
p108
S'Thomas'
p109
sS'temps'
p110
I60
sS'd_h'
p111
S'2016-07-28 11:39:14'
p112
sS'score'
p113
I1382
sa(dp114
g2
S'Inconnu'
p115
sg4
g5
(S'200.0'
p116
tp117
Rp118
sg9
g5
(S'40.0'
p119
tp120
Rp121
sg13
S'#Champion'
p122
sg15
L60L
sg16
g17
(S'\x07\xd1\x01\x01\x00\x00\x00\x00\x00\x00'
p123
tp124
Rp125
sg21
L1000L
sa(dp126
g2
S'Inconnu'
p127
sg4
g5
(S'150.0'
p128
tp129
Rp130
sg9
g5
(S'30.0'
p131
tp132
Rp133
sg13
S'#Archer'
p134
sg15
L60L
sg16
g17
(S'\x07\xd1\x01\x01\x00\x00\x00\x00\x00\x00'
p135
tp136
Rp137
sg21
L750L
sa(dp138
g2
S'Inconnu'
p139
sg4
g5
(S'100.0'
p140
tp141
Rp142
sg9
g5
(S'20.0'
p143
tp144
Rp145
sg13
S'#Guerrier'
p146
sg15
L60L
sg16
g17
(S'\x07\xd1\x01\x01\x00\x00\x00\x00\x00\x00'
p147
tp148
Rp149
sg21
L500L
sa(dp150
g2
S'Inconnu'
p151
sg4
g5
(S'50.0'
p152
tp153
Rp154
sg9
g5
(S'10.0'
p155
tp156
Rp157
sg13
S'#Novice'
p158
sg15
L60L
sg16
g17
(S'\x07\xd1\x01\x01\x00\x00\x00\x00\x00\x00'
p159
tp160
Rp161
sg21
L250L
sa(dp162
g2
S'Inconnu'
p163
sg4
g5
(S'15.0'
p164
tp165
Rp166
sg9
g5
(S'3.0'
p167
tp168
Rp169
sg13
S'#Newbie'
p170
sg15
L60L
sg16
g17
(S'\x07\xd1\x01\x01\x00\x00\x00\x00\x00\x00'
p171
tp172
Rp173
sg21
L100L
sa.