(lp0
(dp1
S'temps'
p2
I5
sS'd_h'
p3
S'2016-05-05 18:35:25'
p4
sS'score'
p5
I1669
sS'cpm'
p6
F391.4
sS'texte_mode'
p7
S'expl::1'
p8
sS'texte_t'
p9
S'L\xc3\xa9o le cerf court dans la for\xc3\xaat.'
p10
sS'mpm'
p11
F88.2
sS'pseudo'
p12
S'Anonyme'
p13
sa.